

Microchip MPLAB XC8 Assembler V2.41 build 20230208172133 
                                                                                               Tue Feb 27 14:31:20 2024

Microchip MPLAB XC8 C Compiler v2.41 (Free license) build 20230208172133 Og1 
     1                           	processor	18F4580
     2                           	fnconf	rparam,??,?,0
     3                           	pagewidth 120
     4                           	opt	flic
     5                           	psect	idataCOMRAM,global,class=CODE,delta=1,noexec
     6                           	psect	idataBANK0,global,class=CODE,delta=1,noexec
     7                           	psect	mediumconst,global,reloc=2,class=MEDIUMCONST,delta=1,noexec
     8                           	psect	cinit,global,reloc=2,class=CODE,delta=1
     9                           	psect	bssCOMRAM,global,class=COMRAM,space=1,delta=1,lowdata,noexec
    10                           	psect	dataCOMRAM,global,class=COMRAM,space=1,delta=1,lowdata,noexec
    11                           	psect	bssBANK0,global,class=BANK0,space=1,delta=1,lowdata,noexec
    12                           	psect	dataBANK0,global,class=BANK0,space=1,delta=1,lowdata,noexec
    13                           	psect	cstackCOMRAM,global,class=COMRAM,space=1,delta=1,lowdata,noexec
    14                           	psect	text0,global,reloc=2,class=CODE,delta=1
    15                           	psect	text1,global,reloc=2,class=CODE,delta=1
    16                           	psect	text2,global,reloc=2,class=CODE,delta=1
    17                           	psect	text3,global,reloc=2,class=CODE,delta=1
    18                           	psect	text4,global,reloc=2,class=CODE,delta=1
    19                           	psect	text5,global,reloc=2,class=CODE,delta=1
    20                           	psect	text6,global,reloc=2,class=CODE,delta=1
    21                           	psect	text7,global,reloc=2,class=CODE,delta=1
    22                           	psect	text8,global,reloc=2,class=CODE,delta=1
    23                           	psect	text9,global,reloc=2,class=CODE,delta=1
    24                           	psect	text10,global,reloc=2,class=CODE,delta=1
    25                           	psect	text11,global,reloc=2,class=CODE,delta=1
    26                           	psect	text12,global,reloc=2,class=CODE,delta=1
    27                           	psect	text13,global,reloc=2,class=CODE,delta=1
    28                           	psect	text14,global,reloc=2,class=CODE,delta=1
    29                           	psect	text15,global,reloc=2,class=CODE,delta=1
    30                           	psect	text16,global,reloc=2,class=CODE,delta=1
    31                           	psect	text17,global,reloc=2,class=CODE,delta=1
    32                           	psect	text18,global,reloc=2,class=CODE,delta=1
    33                           	psect	text19,global,reloc=2,class=CODE,delta=1
    34                           	psect	text20,global,reloc=2,class=CODE,delta=1
    35                           	psect	text21,global,reloc=2,class=CODE,delta=1
    36                           	psect	text22,global,reloc=2,class=CODE,delta=1
    37                           	psect	text23,global,reloc=2,class=CODE,delta=1
    38                           	psect	text24,global,reloc=2,class=CODE,delta=1
    39                           	psect	text25,global,reloc=2,class=CODE,delta=1
    40                           	psect	text26,global,reloc=2,class=CODE,delta=1
    41                           	psect	text27,global,reloc=2,class=CODE,delta=1,group=2
    42                           	psect	text28,global,reloc=2,class=CODE,delta=1,group=2
    43                           	psect	text29,global,reloc=2,class=CODE,delta=1
    44                           	psect	text30,global,reloc=2,class=CODE,delta=1
    45                           	psect	text31,global,reloc=2,class=CODE,delta=1
    46                           	psect	text32,global,reloc=2,class=CODE,delta=1
    47                           	psect	text33,global,reloc=2,class=CODE,delta=1
    48                           	psect	text34,global,reloc=2,class=CODE,delta=1
    49                           	psect	text35,global,reloc=2,class=CODE,delta=1
    50                           	psect	text36,global,reloc=2,class=CODE,delta=1
    51                           	psect	text37,global,reloc=2,class=CODE,delta=1
    52                           	psect	text38,global,reloc=2,class=CODE,delta=1
    53                           	psect	text39,global,reloc=2,class=CODE,delta=1
    54                           	psect	text40,global,reloc=2,class=CODE,delta=1
    55                           	psect	text41,global,reloc=2,class=CODE,delta=1
    56                           	psect	text42,global,reloc=2,class=CODE,delta=1
    57                           	psect	text43,global,reloc=2,class=CODE,delta=1,group=1
    58                           	psect	text44,global,reloc=2,class=CODE,delta=1,group=1
    59                           	psect	text45,global,reloc=2,class=CODE,delta=1
    60                           	psect	text46,global,reloc=2,class=CODE,delta=1
    61                           	psect	text47,global,reloc=2,class=CODE,delta=1
    62                           	psect	text48,global,reloc=2,class=CODE,delta=1
    63                           	psect	text49,global,reloc=2,class=CODE,delta=1,group=1
    64                           	psect	text50,global,reloc=2,class=CODE,delta=1,group=1
    65                           	psect	text51,global,reloc=2,class=CODE,delta=1,group=1
    66                           	psect	intcode,global,reloc=2,class=CODE,delta=1
    67                           	psect	intcode_body,global,reloc=2,class=CODE,delta=1
    68                           	psect	intsave_regs,global,class=BIGRAM,space=1,delta=1,noexec
    69                           	psect	rparam,global,class=COMRAM,space=1,delta=1,noexec
    70                           	psect	temp,global,ovrld,common,class=COMRAM,space=1,delta=1
    71                           	psect	idloc,global,abs,ovrld,class=IDLOC,space=5,delta=1,noexec
    72                           	psect	config,global,abs,ovrld,class=CONFIG,space=4,delta=1,noexec
    73   000000                     
    74                           ; Version 2.20
    75                           ; Generated 12/02/2020 GMT
    76                           ; 
    77                           ; Copyright © 2020, Microchip Technology Inc. and its subsidiaries ("Microchip")
    78                           ; All rights reserved.
    79                           ; 
    80                           ; This software is developed by Microchip Technology Inc. and its subsidiaries ("Microch
      +                          ip").
    81                           ; 
    82                           ; Redistribution and use in source and binary forms, with or without modification, are
    83                           ; permitted provided that the following conditions are met:
    84                           ; 
    85                           ;     1. Redistributions of source code must retain the above copyright notice, this lis
      +                          t of
    86                           ;        conditions and the following disclaimer.
    87                           ; 
    88                           ;     2. Redistributions in binary form must reproduce the above copyright notice, this 
      +                          list
    89                           ;        of conditions and the following disclaimer in the documentation and/or other
    90                           ;        materials provided with the distribution.
    91                           ; 
    92                           ;     3. Microchip's name may not be used to endorse or promote products derived from th
      +                          is
    93                           ;        software without specific prior written permission.
    94                           ; 
    95                           ; THIS SOFTWARE IS PROVIDED BY MICROCHIP "AS IS" AND ANY EXPRESS OR IMPLIED WARRANTIES,
    96                           ; INCLUDING, BUT NOT LIMITED TO, THE IMPLIED WARRANTIES OF MERCHANTABILITY AND FITNESS F
      +                          OR
    97                           ; PURPOSE ARE DISCLAIMED.  IN NO EVENT SHALL MICROCHIP BE LIABLE FOR ANY DIRECT, INDIREC
      +                          T,
    98                           ; INCIDENTAL, SPECIAL, EXEMPLARY, OR CONSEQUENTIAL DAMAGES (INCLUDING BUT NOT LIMITED TO
    99                           ; PROCUREMENT OF SUBSTITUTE GOODS OR SERVICES; LOSS OF USE, DATA OR PROFITS; OR BUSINESS
   100                           ; INTERRUPTION) HOWSOEVER CAUSED AND ON ANY THEORY OF LIABILITY, WHETHER IN CONTRACT, ST
      +                          RICT
   101                           ; LIABILITY, OR TORT (INCLUDING NEGLIGENCE OR OTHERWISE) ARISING IN ANY WAY OUT OF THE U
      +                          SE OF
   102                           ; THIS SOFTWARE, EVEN IF ADVISED OF THE POSSIBILITY OF SUCH DAMAGE.
   103                           ; 
   104                           ; 
   105                           ; Code-generator required, PIC18F4580 Definitions
   106                           ; 
   107                           ; SFR Addresses
   108   000000                     
   109                           	psect	idataCOMRAM
   110   002CD8                     __pidataCOMRAM:
   111                           	callstack 0
   112                           
   113                           ;initializer for _attempt
   114   002CD8  0003               	dw	3
   115                           
   116                           ;initializer for set_time@once
   117   002CDA  01                 	db	1
   118                           
   119                           ;initializer for _direction_flag
   120   002CDB  01                 	db	1
   121                           
   122                           ;initializer for _min_2
   123   002CDC  78                 	db	120
   124                           
   125                           ;initializer for _flag_1_sec
   126   002CDD  01                 	db	1
   127                           
   128                           ;initializer for read_switches@once
   129   002CDE  01                 	db	1
   130                           
   131                           	psect	idataBANK0
   132   002946                     __pidataBANK0:
   133                           	callstack 0
   134                           
   135                           ;initializer for _list_address
   136   002946  0000               	dw	0
   137   002948  0005               	dw	5
   138   00294A  000A               	dw	10
   139   00294C  000F               	dw	15
   140   00294E  0014               	dw	20
   141   002950  0019               	dw	25
   142   002952  001E               	dw	30
   143   002954  0023               	dw	35
   144   002956  0028               	dw	40
   145   002958  002D               	dw	45
   146                           
   147                           ;initializer for _event
   148   00295A  F6                 	db	low STR_49
   149   00295B  2F                 	db	high STR_49
   150   00295C  F9                 	db	low STR_50
   151   00295D  2F                 	db	high STR_50
   152   00295E  F3                 	db	low STR_51
   153   00295F  2F                 	db	high STR_51
   154   002960  E7                 	db	low STR_52
   155   002961  2F                 	db	high STR_52
   156   002962  EA                 	db	low STR_53
   157   002963  2F                 	db	high STR_53
   158   002964  ED                 	db	low STR_54
   159   002965  2F                 	db	high STR_54
   160   002966  F0                 	db	low STR_55
   161   002967  2F                 	db	high STR_55
   162   002968  E4                 	db	low STR_56
   163   002969  2F                 	db	high STR_56
   164                           
   165                           ;initializer for _wait
   166   00296A  1388               	dw	5000
   167                           
   168                           ;initializer for _menu_name
   169   00296C  4F                 	db	low STR_11
   170   00296D  2F                 	db	high STR_11
   171   00296E  6F                 	db	low STR_12
   172   00296F  2F                 	db	high STR_12
   173   002970  5F                 	db	low STR_13
   174   002971  2F                 	db	high STR_13
   175   002972  3F                 	db	low STR_14
   176   002973  2F                 	db	high STR_14
   177   002974  8F                 	db	low STR_15
   178   002975  2F                 	db	high STR_15
   179                           
   180                           ;initializer for _time
   181   002976  30                 	db	48
   182   002977  30                 	db	48
   183   002978  3A                 	db	58
   184   002979  30                 	db	48
   185   00297A  30                 	db	48
   186   00297B  3A                 	db	58
   187   00297C  30                 	db	48
   188   00297D  30                 	db	48
   189   00297E  00                 	db	0
   190   00297F  00                 	db	0
   191                           
   192                           ;initializer for change_password@chng_psw_temp_star
   193   002980  20                 	db	32
   194   002981  20                 	db	32
   195   002982  20                 	db	32
   196   002983  20                 	db	32
   197   002984  00                 	db	0
   198   002985  00                 	db	0
   199                           
   200                           ;initializer for change_password@chng_psw_star
   201   002986  20                 	db	32
   202   002987  20                 	db	32
   203   002988  20                 	db	32
   204   002989  20                 	db	32
   205   00298A  00                 	db	0
   206   00298B  00                 	db	0
   207                           
   208                           ;initializer for _psw_star
   209   00298C  20                 	db	32
   210   00298D  20                 	db	32
   211   00298E  20                 	db	32
   212   00298F  20                 	db	32
   213   002990  00                 	db	0
   214   002991  00                 	db	0
   215   000000                     _RCREG	set	4014
   216   000000                     _TXREG	set	4013
   217   000000                     _SPBRG	set	4015
   218   000000                     _SSPADD	set	4040
   219   000000                     _SSPCON1	set	4038
   220   000000                     _ADRESL	set	4035
   221   000000                     _ADRESH	set	4036
   222   000000                     _ACKSTAT	set	32302
   223   000000                     _CKE	set	32318
   224   000000                     _GODONE	set	32273
   225   000000                     _T0CS	set	32429
   226   000000                     _RBPU	set	32655
   227   000000                     _ADCON0	set	4034
   228   000000                     _PORTBbits	set	3969
   229   000000                     _TRISD	set	3989
   230   000000                     _RCIF	set	31989
   231   000000                     _TXIF	set	31988
   232   000000                     _CREN	set	32092
   233   000000                     _TRISC6	set	31910
   234   000000                     _TRISC7	set	31911
   235   000000                     _ACKEN	set	32300
   236   000000                     _ACKDT	set	32301
   237   000000                     _RCEN	set	32299
   238   000000                     _RSEN	set	32297
   239   000000                     _PEN	set	32298
   240   000000                     _SEN	set	32296
   241   000000                     _SMP	set	32319
   242   000000                     _TRISC4	set	31908
   243   000000                     _TRISC3	set	31907
   244   000000                     _GO	set	32273
   245   000000                     _ADON	set	32272
   246   000000                     _VCFG0	set	32268
   247   000000                     _VCFG1	set	32269
   248   000000                     _ADCS2	set	32258
   249   000000                     _ADCS1	set	32257
   250   000000                     _ADCS0	set	32256
   251   000000                     _ACQT0	set	32259
   252   000000                     _ACQT1	set	32260
   253   000000                     _ACQT2	set	32261
   254   000000                     _TMR0IE	set	32661
   255   000000                     _TMR0IF	set	32658
   256   000000                     _T0PS2	set	32426
   257   000000                     _T0PS1	set	32425
   258   000000                     _T0PS0	set	32424
   259   000000                     _PSA	set	32427
   260   000000                     _RD7	set	31775
   261   000000                     _RC0	set	31760
   262   000000                     _RC2	set	31762
   263   000000                     _GIE	set	32663
   264   000000                     _PORTB	set	3969
   265   000000                     _RC1	set	31761
   266   000000                     _PEIE	set	32662
   267   000000                     _TRISB	set	3987
   268   000000                     _TRISC	set	3988
   269   000000                     _PORTD	set	3971
   270   000000                     _TRISD7	set	31919
   271   000000                     _ADCON1	set	4033
   272   000000                     _RCIE	set	31981
   273   000000                     _SSPIF	set	31987
   274   000000                     _ADFM	set	32263
   275   000000                     _TMR0	set	4054
   276   000000                     _SSPBUF	set	4041
   277   000000                     _BCLIF	set	32011
   278   000000                     _SPEN	set	32095
   279   000000                     _BRGH	set	32098
   280                           
   281                           	psect	mediumconst
   282   002E2E                     __pmediumconst:
   283                           	callstack 0
   284   002E2E  00                 	db	0
   285   002E2F                     STR_57:
   286   002E2F  20                 	db	32
   287   002E30  20                 	db	32
   288   002E31  54                 	db	84	;'T'
   289   002E32  49                 	db	73	;'I'
   290   002E33  4D                 	db	77	;'M'
   291   002E34  45                 	db	69	;'E'
   292   002E35  20                 	db	32
   293   002E36  20                 	db	32
   294   002E37  20                 	db	32
   295   002E38  45                 	db	69	;'E'
   296   002E39  56                 	db	86	;'V'
   297   002E3A  20                 	db	32
   298   002E3B  20                 	db	32
   299   002E3C  53                 	db	83	;'S'
   300   002E3D  50                 	db	80	;'P'
   301   002E3E  20                 	db	32
   302   002E3F  00                 	db	0
   303   002E40                     STR_18:
   304   002E40  20                 	db	32
   305   002E41  20                 	db	32
   306   002E42  20                 	db	32
   307   002E43  20                 	db	32
   308   002E44  20                 	db	32
   309   002E45  45                 	db	69	;'E'
   310   002E46  4D                 	db	77	;'M'
   311   002E47  50                 	db	80	;'P'
   312   002E48  54                 	db	84	;'T'
   313   002E49  59                 	db	89	;'Y'
   314   002E4A  20                 	db	32
   315   002E4B  20                 	db	32
   316   002E4C  20                 	db	32
   317   002E4D  20                 	db	32
   318   002E4E  20                 	db	32
   319   002E4F  20                 	db	32
   320   002E50  00                 	db	0
   321   002E51                     STR_28:
   322   002E51  20                 	db	32
   323   002E52  20                 	db	32
   324   002E53  20                 	db	32
   325   002E54  20                 	db	32
   326   002E55  53                 	db	83	;'S'
   327   002E56  45                 	db	69	;'E'
   328   002E57  54                 	db	84	;'T'
   329   002E58  20                 	db	32
   330   002E59  54                 	db	84	;'T'
   331   002E5A  49                 	db	73	;'I'
   332   002E5B  4D                 	db	77	;'M'
   333   002E5C  45                 	db	69	;'E'
   334   002E5D  20                 	db	32
   335   002E5E  20                 	db	32
   336   002E5F  20                 	db	32
   337   002E60  20                 	db	32
   338   002E61  00                 	db	0
   339   002E62                     STR_17:
   340   002E62  20                 	db	32
   341   002E63  20                 	db	32
   342   002E64  20                 	db	32
   343   002E65  20                 	db	32
   344   002E66  56                 	db	86	;'V'
   345   002E67  49                 	db	73	;'I'
   346   002E68  45                 	db	69	;'E'
   347   002E69  57                 	db	87	;'W'
   348   002E6A  20                 	db	32
   349   002E6B  4C                 	db	76	;'L'
   350   002E6C  4F                 	db	79	;'O'
   351   002E6D  47                 	db	71	;'G'
   352   002E6E  20                 	db	32
   353   002E6F  20                 	db	32
   354   002E70  20                 	db	32
   355   002E71  20                 	db	32
   356   002E72  00                 	db	0
   357   002E73                     STR_19:
   358   002E73  20                 	db	32
   359   002E74  20                 	db	32
   360   002E75  20                 	db	32
   361   002E76  43                 	db	67	;'C'
   362   002E77  4C                 	db	76	;'L'
   363   002E78  45                 	db	69	;'E'
   364   002E79  41                 	db	65	;'A'
   365   002E7A  52                 	db	82	;'R'
   366   002E7B  20                 	db	32
   367   002E7C  20                 	db	32
   368   002E7D  4C                 	db	76	;'L'
   369   002E7E  4F                 	db	79	;'O'
   370   002E7F  47                 	db	71	;'G'
   371   002E80  20                 	db	32
   372   002E81  20                 	db	32
   373   002E82  20                 	db	32
   374   002E83  00                 	db	0
   375   002E84                     STR_20:
   376   002E84  20                 	db	32
   377   002E85  20                 	db	32
   378   002E86  20                 	db	32
   379   002E87  53                 	db	83	;'S'
   380   002E88  55                 	db	85	;'U'
   381   002E89  43                 	db	67	;'C'
   382   002E8A  43                 	db	67	;'C'
   383   002E8B  45                 	db	69	;'E'
   384   002E8C  53                 	db	83	;'S'
   385   002E8D  53                 	db	83	;'S'
   386   002E8E  46                 	db	70	;'F'
   387   002E8F  55                 	db	85	;'U'
   388   002E90  4C                 	db	76	;'L'
   389   002E91  20                 	db	32
   390   002E92  20                 	db	32
   391   002E93  20                 	db	32
   392   002E94  00                 	db	0
   393   002E95                     STR_40:
   394   002E95  20                 	db	32
   395   002E96  20                 	db	32
   396   002E97  45                 	db	69	;'E'
   397   002E98  4E                 	db	78	;'N'
   398   002E99  54                 	db	84	;'T'
   399   002E9A  45                 	db	69	;'E'
   400   002E9B  52                 	db	82	;'R'
   401   002E9C  45                 	db	69	;'E'
   402   002E9D  44                 	db	68	;'D'
   403   002E9E  20                 	db	32
   404   002E9F  50                 	db	80	;'P'
   405   002EA0  53                 	db	83	;'S'
   406   002EA1  57                 	db	87	;'W'
   407   002EA2  44                 	db	68	;'D'
   408   002EA3  20                 	db	32
   409   002EA4  20                 	db	32
   410   002EA5  00                 	db	0
   411   002EA6                     STR_21:
   412   002EA6  20                 	db	32
   413   002EA7  20                 	db	32
   414   002EA8  44                 	db	68	;'D'
   415   002EA9  4F                 	db	79	;'O'
   416   002EAA  57                 	db	87	;'W'
   417   002EAB  4E                 	db	78	;'N'
   418   002EAC  4C                 	db	76	;'L'
   419   002EAD  4F                 	db	79	;'O'
   420   002EAE  41                 	db	65	;'A'
   421   002EAF  44                 	db	68	;'D'
   422   002EB0  20                 	db	32
   423   002EB1  4C                 	db	76	;'L'
   424   002EB2  4F                 	db	79	;'O'
   425   002EB3  47                 	db	71	;'G'
   426   002EB4  20                 	db	32
   427   002EB5  20                 	db	32
   428   002EB6  00                 	db	0
   429   002EB7                     STR_45:
   430   002EB7  20                 	db	32
   431   002EB8  20                 	db	32
   432   002EB9  52                 	db	82	;'R'
   433   002EBA  45                 	db	69	;'E'
   434   002EBB  2D                 	db	45
   435   002EBC  45                 	db	69	;'E'
   436   002EBD  4E                 	db	78	;'N'
   437   002EBE  54                 	db	84	;'T'
   438   002EBF  45                 	db	69	;'E'
   439   002EC0  52                 	db	82	;'R'
   440   002EC1  20                 	db	32
   441   002EC2  50                 	db	80	;'P'
   442   002EC3  53                 	db	83	;'S'
   443   002EC4  57                 	db	87	;'W'
   444   002EC5  20                 	db	32
   445   002EC6  20                 	db	32
   446   002EC7  00                 	db	0
   447   002EC8                     STR_33:
   448   002EC8  20                 	db	32
   449   002EC9  59                 	db	89	;'Y'
   450   002ECA  20                 	db	32
   451   002ECB  3D                 	db	61	;'='
   452   002ECC  20                 	db	32
   453   002ECD  35                 	db	53	;'5'
   454   002ECE  20                 	db	32
   455   002ECF  6F                 	db	111	;'o'
   456   002ED0  72                 	db	114	;'r'
   457   002ED1  20                 	db	32
   458   002ED2  4E                 	db	78	;'N'
   459   002ED3  20                 	db	32
   460   002ED4  3D                 	db	61	;'='
   461   002ED5  20                 	db	32
   462   002ED6  36                 	db	54	;'6'
   463   002ED7  20                 	db	32
   464   002ED8  00                 	db	0
   465   002ED9                     STR_32:
   466   002ED9  20                 	db	32
   467   002EDA  43                 	db	67	;'C'
   468   002EDB  4F                 	db	79	;'O'
   469   002EDC  4E                 	db	78	;'N'
   470   002EDD  46                 	db	70	;'F'
   471   002EDE  49                 	db	73	;'I'
   472   002EDF  52                 	db	82	;'R'
   473   002EE0  4D                 	db	77	;'M'
   474   002EE1  20                 	db	32
   475   002EE2  43                 	db	67	;'C'
   476   002EE3  48                 	db	72	;'H'
   477   002EE4  41                 	db	65	;'A'
   478   002EE5  4E                 	db	78	;'N'
   479   002EE6  47                 	db	71	;'G'
   480   002EE7  45                 	db	69	;'E'
   481   002EE8  20                 	db	32
   482   002EE9  00                 	db	0
   483   002EEA                     STR_41:
   484   002EEA  20                 	db	32
   485   002EEB  44                 	db	68	;'D'
   486   002EEC  4F                 	db	79	;'O'
   487   002EED  45                 	db	69	;'E'
   488   002EEE  53                 	db	83	;'S'
   489   002EEF  20                 	db	32
   490   002EF0  4E                 	db	78	;'N'
   491   002EF1  4F                 	db	79	;'O'
   492   002EF2  54                 	db	84	;'T'
   493   002EF3  20                 	db	32
   494   002EF4  4D                 	db	77	;'M'
   495   002EF5  41                 	db	65	;'A'
   496   002EF6  54                 	db	84	;'T'
   497   002EF7  43                 	db	67	;'C'
   498   002EF8  48                 	db	72	;'H'
   499   002EF9  20                 	db	32
   500   002EFA  00                 	db	0
   501   002EFB                     STR_37:
   502   002EFB  43                 	db	67	;'C'
   503   002EFC  48                 	db	72	;'H'
   504   002EFD  41                 	db	65	;'A'
   505   002EFE  4E                 	db	78	;'N'
   506   002EFF  41                 	db	65	;'A'
   507   002F00  47                 	db	71	;'G'
   508   002F01  45                 	db	69	;'E'
   509   002F02  20                 	db	32
   510   002F03  50                 	db	80	;'P'
   511   002F04  41                 	db	65	;'A'
   512   002F05  53                 	db	83	;'S'
   513   002F06  53                 	db	83	;'S'
   514   002F07  57                 	db	87	;'W'
   515   002F08  4F                 	db	79	;'O'
   516   002F09  52                 	db	82	;'R'
   517   002F0A  44                 	db	68	;'D'
   518   002F0B  00                 	db	0
   519   002F0C                     STR_3:
   520   002F0C  41                 	db	65	;'A'
   521   002F0D  54                 	db	84	;'T'
   522   002F0E  54                 	db	84	;'T'
   523   002F0F  45                 	db	69	;'E'
   524   002F10  4D                 	db	77	;'M'
   525   002F11  50                 	db	80	;'P'
   526   002F12  54                 	db	84	;'T'
   527   002F13  20                 	db	32
   528   002F14  46                 	db	70	;'F'
   529   002F15  41                 	db	65	;'A'
   530   002F16  49                 	db	73	;'I'
   531   002F17  4C                 	db	76	;'L'
   532   002F18  45                 	db	69	;'E'
   533   002F19  44                 	db	68	;'D'
   534   002F1A  20                 	db	32
   535   002F1B  20                 	db	32
   536   002F1C  00                 	db	0
   537   002F1D                     STR_5:
   538   002F1D  59                 	db	89	;'Y'
   539   002F1E  4F                 	db	79	;'O'
   540   002F1F  55                 	db	85	;'U'
   541   002F20  20                 	db	32
   542   002F21  41                 	db	65	;'A'
   543   002F22  52                 	db	82	;'R'
   544   002F23  45                 	db	69	;'E'
   545   002F24  20                 	db	32
   546   002F25  42                 	db	66	;'B'
   547   002F26  4C                 	db	76	;'L'
   548   002F27  4F                 	db	79	;'O'
   549   002F28  43                 	db	67	;'C'
   550   002F29  4B                 	db	75	;'K'
   551   002F2A  45                 	db	69	;'E'
   552   002F2B  44                 	db	68	;'D'
   553   002F2C  20                 	db	32
   554   002F2D  00                 	db	0
   555   002F2E                     STR_9:
   556   002F2E  20                 	db	32
   557   002F2F  45                 	db	69	;'E'
   558   002F30  4E                 	db	78	;'N'
   559   002F31  54                 	db	84	;'T'
   560   002F32  45                 	db	69	;'E'
   561   002F33  52                 	db	82	;'R'
   562   002F34  20                 	db	32
   563   002F35  50                 	db	80	;'P'
   564   002F36  41                 	db	65	;'A'
   565   002F37  53                 	db	83	;'S'
   566   002F38  53                 	db	83	;'S'
   567   002F39  57                 	db	87	;'W'
   568   002F3A  4F                 	db	79	;'O'
   569   002F3B  52                 	db	82	;'R'
   570   002F3C  44                 	db	68	;'D'
   571   002F3D  20                 	db	32
   572   002F3E  00                 	db	0
   573   002F3F                     STR_14:
   574   002F3F  53                 	db	83	;'S'
   575   002F40  45                 	db	69	;'E'
   576   002F41  54                 	db	84	;'T'
   577   002F42  20                 	db	32
   578   002F43  54                 	db	84	;'T'
   579   002F44  49                 	db	73	;'I'
   580   002F45  4D                 	db	77	;'M'
   581   002F46  45                 	db	69	;'E'
   582   002F47  20                 	db	32
   583   002F48  20                 	db	32
   584   002F49  20                 	db	32
   585   002F4A  20                 	db	32
   586   002F4B  20                 	db	32
   587   002F4C  20                 	db	32
   588   002F4D  20                 	db	32
   589   002F4E  00                 	db	0
   590   002F4F                     STR_11:
   591   002F4F  56                 	db	86	;'V'
   592   002F50  49                 	db	73	;'I'
   593   002F51  45                 	db	69	;'E'
   594   002F52  57                 	db	87	;'W'
   595   002F53  20                 	db	32
   596   002F54  4C                 	db	76	;'L'
   597   002F55  4F                 	db	79	;'O'
   598   002F56  47                 	db	71	;'G'
   599   002F57  20                 	db	32
   600   002F58  20                 	db	32
   601   002F59  20                 	db	32
   602   002F5A  20                 	db	32
   603   002F5B  20                 	db	32
   604   002F5C  20                 	db	32
   605   002F5D  20                 	db	32
   606   002F5E  00                 	db	0
   607   002F5F                     STR_13:
   608   002F5F  43                 	db	67	;'C'
   609   002F60  4C                 	db	76	;'L'
   610   002F61  45                 	db	69	;'E'
   611   002F62  41                 	db	65	;'A'
   612   002F63  52                 	db	82	;'R'
   613   002F64  20                 	db	32
   614   002F65  4C                 	db	76	;'L'
   615   002F66  4F                 	db	79	;'O'
   616   002F67  47                 	db	71	;'G'
   617   002F68  20                 	db	32
   618   002F69  20                 	db	32
   619   002F6A  20                 	db	32
   620   002F6B  20                 	db	32
   621   002F6C  20                 	db	32
   622   002F6D  20                 	db	32
   623   002F6E  00                 	db	0
   624   002F6F                     STR_12:
   625   002F6F  44                 	db	68	;'D'
   626   002F70  4F                 	db	79	;'O'
   627   002F71  57                 	db	87	;'W'
   628   002F72  4E                 	db	78	;'N'
   629   002F73  4C                 	db	76	;'L'
   630   002F74  4F                 	db	79	;'O'
   631   002F75  41                 	db	65	;'A'
   632   002F76  44                 	db	68	;'D'
   633   002F77  20                 	db	32
   634   002F78  4C                 	db	76	;'L'
   635   002F79  4F                 	db	79	;'O'
   636   002F7A  47                 	db	71	;'G'
   637   002F7B  20                 	db	32
   638   002F7C  20                 	db	32
   639   002F7D  20                 	db	32
   640   002F7E  00                 	db	0
   641   002F7F                     STR_16:
   642   002F7F  20                 	db	32
   643   002F80  20                 	db	32
   644   002F81  54                 	db	84	;'T'
   645   002F82  49                 	db	73	;'I'
   646   002F83  4D                 	db	77	;'M'
   647   002F84  45                 	db	69	;'E'
   648   002F85  20                 	db	32
   649   002F86  20                 	db	32
   650   002F87  20                 	db	32
   651   002F88  45                 	db	69	;'E'
   652   002F89  56                 	db	86	;'V'
   653   002F8A  20                 	db	32
   654   002F8B  53                 	db	83	;'S'
   655   002F8C  50                 	db	80	;'P'
   656   002F8D  20                 	db	32
   657   002F8E  00                 	db	0
   658   002F8F                     STR_15:
   659   002F8F  43                 	db	67	;'C'
   660   002F90  48                 	db	72	;'H'
   661   002F91  41                 	db	65	;'A'
   662   002F92  4E                 	db	78	;'N'
   663   002F93  47                 	db	71	;'G'
   664   002F94  45                 	db	69	;'E'
   665   002F95  20                 	db	32
   666   002F96  50                 	db	80	;'P'
   667   002F97  41                 	db	65	;'A'
   668   002F98  53                 	db	83	;'S'
   669   002F99  53                 	db	83	;'S'
   670   002F9A  57                 	db	87	;'W'
   671   002F9B  4F                 	db	79	;'O'
   672   002F9C  52                 	db	82	;'R'
   673   002F9D  44                 	db	68	;'D'
   674   002F9E  00                 	db	0
   675   002F9F                     STR_4:
   676   002F9F  41                 	db	65	;'A'
   677   002FA0  54                 	db	84	;'T'
   678   002FA1  54                 	db	84	;'T'
   679   002FA2  45                 	db	69	;'E'
   680   002FA3  4D                 	db	77	;'M'
   681   002FA4  50                 	db	80	;'P'
   682   002FA5  54                 	db	84	;'T'
   683   002FA6  20                 	db	32
   684   002FA7  4C                 	db	76	;'L'
   685   002FA8  45                 	db	69	;'E'
   686   002FA9  46                 	db	70	;'F'
   687   002FAA  54                 	db	84	;'T'
   688   002FAB  20                 	db	32
   689   002FAC  2D                 	db	45
   690   002FAD  20                 	db	32
   691   002FAE  00                 	db	0
   692   002FAF                     STR_25:
   693   002FAF  20                 	db	32
   694   002FB0  20                 	db	32
   695   002FB1  54                 	db	84	;'T'
   696   002FB2  49                 	db	73	;'I'
   697   002FB3  4D                 	db	77	;'M'
   698   002FB4  45                 	db	69	;'E'
   699   002FB5  20                 	db	32
   700   002FB6  20                 	db	32
   701   002FB7  20                 	db	32
   702   002FB8  45                 	db	69	;'E'
   703   002FB9  56                 	db	86	;'V'
   704   002FBA  20                 	db	32
   705   002FBB  53                 	db	83	;'S'
   706   002FBC  50                 	db	80	;'P'
   707   002FBD  00                 	db	0
   708   002FBE                     STR_10:
   709   002FBE  20                 	db	32
   710   002FBF  20                 	db	32
   711   002FC0  20                 	db	32
   712   002FC1  20                 	db	32
   713   002FC2  20                 	db	32
   714   002FC3  20                 	db	32
   715   002FC4  20                 	db	32
   716   002FC5  20                 	db	32
   717   002FC6  20                 	db	32
   718   002FC7  20                 	db	32
   719   002FC8  20                 	db	32
   720   002FC9  20                 	db	32
   721   002FCA  00                 	db	0
   722   002FCB                     STR_23:
   723   002FCB  4C                 	db	76	;'L'
   724   002FCC  4F                 	db	79	;'O'
   725   002FCD  47                 	db	71	;'G'
   726   002FCE  20                 	db	32
   727   002FCF  45                 	db	69	;'E'
   728   002FD0  4D                 	db	77	;'M'
   729   002FD1  50                 	db	80	;'P'
   730   002FD2  54                 	db	84	;'T'
   731   002FD3  59                 	db	89	;'Y'
   732   002FD4  00                 	db	0
   733   002FD5                     STR_6:
   734   002FD5  57                 	db	87	;'W'
   735   002FD6  41                 	db	65	;'A'
   736   002FD7  49                 	db	73	;'I'
   737   002FD8  54                 	db	84	;'T'
   738   002FD9  20                 	db	32
   739   002FDA  46                 	db	70	;'F'
   740   002FDB  4F                 	db	79	;'O'
   741   002FDC  52                 	db	82	;'R'
   742   002FDD  20                 	db	32
   743   002FDE  00                 	db	0
   744   002FDF                     STR_7:
   745   002FDF  20                 	db	32
   746   002FE0  53                 	db	83	;'S'
   747   002FE1  45                 	db	69	;'E'
   748   002FE2  43                 	db	67	;'C'
   749   002FE3  00                 	db	0
   750   002FE4                     STR_56:
   751   002FE4  43                 	db	67	;'C'
   752   002FE5  20                 	db	32
   753   002FE6  00                 	db	0
   754   002FE7                     STR_52:
   755   002FE7  47                 	db	71	;'G'
   756   002FE8  31                 	db	49	;'1'
   757   002FE9  00                 	db	0
   758   002FEA                     STR_53:
   759   002FEA  47                 	db	71	;'G'
   760   002FEB  32                 	db	50	;'2'
   761   002FEC  00                 	db	0
   762   002FED                     STR_54:
   763   002FED  47                 	db	71	;'G'
   764   002FEE  33                 	db	51	;'3'
   765   002FEF  00                 	db	0
   766   002FF0                     STR_55:
   767   002FF0  47                 	db	71	;'G'
   768   002FF1  34                 	db	52	;'4'
   769   002FF2  00                 	db	0
   770   002FF3                     STR_51:
   771   002FF3  47                 	db	71	;'G'
   772   002FF4  4E                 	db	78	;'N'
   773   002FF5  00                 	db	0
   774   002FF6                     STR_49:
   775   002FF6  4F                 	db	79	;'O'
   776   002FF7  4E                 	db	78	;'N'
   777   002FF8  00                 	db	0
   778   002FF9                     STR_50:
   779   002FF9  47                 	db	71	;'G'
   780   002FFA  52                 	db	82	;'R'
   781   002FFB  00                 	db	0
   782   002FFC                     STR_24:
   783   002FFC  0A                 	db	10
   784   002FFD  0D                 	db	13
   785   002FFE  00                 	db	0
   786   002FFF  00                 	db	0	; dummy byte at the end
   787   000000                     
   788                           ; #config settings
   789                           
   790                           	psect	cinit
   791   0027CA                     __pcinit:
   792                           	callstack 0
   793   0027CA                     start_initialization:
   794                           	callstack 0
   795   0027CA                     __initialization:
   796                           	callstack 0
   797                           
   798                           ; Initialize objects allocated to BANK0 (76 bytes)
   799                           ; load TBLPTR registers with __pidataBANK0
   800   0027CA  0E46               	movlw	low __pidataBANK0
   801   0027CC  6EF6               	movwf	tblptrl,c
   802   0027CE  0E29               	movlw	high __pidataBANK0
   803   0027D0  6EF7               	movwf	tblptrh,c
   804   0027D2  0E00               	movlw	low (__pidataBANK0 shr (0+16))
   805   0027D4  6EF8               	movwf	tblptru,c
   806   0027D6  EE00  F060         	lfsr	0,__pdataBANK0
   807   0027DA  EE10 F04C          	lfsr	1,76
   808   0027DE                     copy_data0:
   809   0027DE  0009               	tblrd		*+
   810   0027E0  CFF5 FFEE          	movff	tablat,postinc0
   811   0027E4  50E5               	movf	postdec1,w,c
   812   0027E6  50E1               	movf	fsr1l,w,c
   813   0027E8  E1FA               	bnz	copy_data0
   814                           
   815                           ; Initialize objects allocated to COMRAM (7 bytes)
   816                           ; load TBLPTR registers with __pidataCOMRAM
   817   0027EA  0ED8               	movlw	low __pidataCOMRAM
   818   0027EC  6EF6               	movwf	tblptrl,c
   819   0027EE  0E2C               	movlw	high __pidataCOMRAM
   820   0027F0  6EF7               	movwf	tblptrh,c
   821   0027F2  0E00               	movlw	low (__pidataCOMRAM shr (0+16))
   822   0027F4  6EF8               	movwf	tblptru,c
   823   0027F6  EE00  F053         	lfsr	0,__pdataCOMRAM
   824   0027FA  EE10 F007          	lfsr	1,7
   825   0027FE                     copy_data1:
   826   0027FE  0009               	tblrd		*+
   827   002800  CFF5 FFEE          	movff	tablat,postinc0
   828   002804  50E5               	movf	postdec1,w,c
   829   002806  50E1               	movf	fsr1l,w,c
   830   002808  E1FA               	bnz	copy_data1
   831                           
   832                           ; Clear objects allocated to BANK0 (44 bytes)
   833   00280A  EE00  F0AC         	lfsr	0,__pbssBANK0
   834   00280E  0E2C               	movlw	44
   835   002810                     clear_0:
   836   002810  6AEE               	clrf	postinc0,c
   837   002812  06E8               	decf	wreg,f,c
   838   002814  E1FD               	bnz	clear_0
   839                           
   840                           ; Clear objects allocated to COMRAM (30 bytes)
   841   002816  EE00  F035         	lfsr	0,__pbssCOMRAM
   842   00281A  0E1E               	movlw	30
   843   00281C                     clear_1:
   844   00281C  6AEE               	clrf	postinc0,c
   845   00281E  06E8               	decf	wreg,f,c
   846   002820  E1FD               	bnz	clear_1
   847   002822                     end_of_initialization:
   848                           	callstack 0
   849   002822                     __end_of__initialization:
   850                           	callstack 0
   851   002822  905A               	bcf	int$flags,0,c	;clear compiler interrupt flag (level 1)
   852   002824  925A               	bcf	int$flags,1,c	;clear compiler interrupt flag (level 2)
   853   002826  0E00               	movlw	low (__Lmediumconst shr (0+16))
   854   002828  6EF8               	movwf	tblptru,c
   855   00282A  0100               	movlb	0
   856   00282C  EFC9  F014         	goto	_main	;jump to C main() function
   857                           
   858                           	psect	bssCOMRAM
   859   000035                     __pbssCOMRAM:
   860                           	callstack 0
   861   000035                     set_time@delay:
   862                           	callstack 0
   863   000035                     	ds	4
   864   000039                     _clock_reg:
   865                           	callstack 0
   866   000039                     	ds	3
   867   00003C                     _address:
   868                           	callstack 0
   869   00003C                     	ds	2
   870   00003E                     _psw_index:
   871                           	callstack 0
   872   00003E                     	ds	2
   873   000040                     _event_num:
   874                           	callstack 0
   875   000040                     	ds	1
   876   000041                     _event_index:
   877                           	callstack 0
   878   000041                     	ds	1
   879   000042                     change_password@psw_ind:
   880                           	callstack 0
   881   000042                     	ds	1
   882   000043                     set_time@time_key:
   883                           	callstack 0
   884   000043                     	ds	1
   885   000044                     set_time@temp_time:
   886                           	callstack 0
   887   000044                     	ds	1
   888   000045                     set_time@feild_flag:
   889                           	callstack 0
   890   000045                     	ds	1
   891   000046                     _log_flag:
   892                           	callstack 0
   893   000046                     	ds	1
   894   000047                     _log_count:
   895                           	callstack 0
   896   000047                     	ds	1
   897   000048                     _list_event:
   898                           	callstack 0
   899   000048                     	ds	1
   900   000049                     _menu_pos:
   901                           	callstack 0
   902   000049                     	ds	1
   903   00004A                     _key_level:
   904                           	callstack 0
   905   00004A                     	ds	1
   906   00004B                     _list_index:
   907                           	callstack 0
   908   00004B                     	ds	1
   909   00004C                     _login_success:
   910                           	callstack 0
   911   00004C                     	ds	1
   912   00004D                     _psw_mode_flag:
   913                           	callstack 0
   914   00004D                     	ds	1
   915   00004E                     _flag_2_min:
   916                           	callstack 0
   917   00004E                     	ds	1
   918   00004F                     _flag_30_sec:
   919                           	callstack 0
   920   00004F                     	ds	1
   921   000050                     _flag_5_sec:
   922                           	callstack 0
   923   000050                     	ds	1
   924   000051                     read_switches@key:
   925                           	callstack 0
   926   000051                     	ds	1
   927   000052                     _key:
   928                           	callstack 0
   929   000052                     	ds	1
   930                           
   931                           	psect	dataCOMRAM
   932   000053                     __pdataCOMRAM:
   933                           	callstack 0
   934   000053                     _attempt:
   935                           	callstack 0
   936   000053                     	ds	2
   937   000055                     set_time@once:
   938                           	callstack 0
   939   000055                     	ds	1
   940   000056                     _direction_flag:
   941                           	callstack 0
   942   000056                     	ds	1
   943   000057                     _min_2:
   944                           	callstack 0
   945   000057                     	ds	1
   946   000058                     _flag_1_sec:
   947                           	callstack 0
   948   000058                     	ds	1
   949   000059                     read_switches@once:
   950                           	callstack 0
   951   000059                     	ds	1
   952                           
   953                           	psect	bssBANK0
   954   0000AC                     __pbssBANK0:
   955                           	callstack 0
   956   0000AC                     _speed:
   957                           	callstack 0
   958   0000AC                     	ds	4
   959   0000B0                     set_time@delay2:
   960                           	callstack 0
   961   0000B0                     	ds	4
   962   0000B4                     _count:
   963                           	callstack 0
   964   0000B4                     	ds	4
   965   0000B8                     change_password@chng_delay2:
   966                           	callstack 0
   967   0000B8                     	ds	2
   968   0000BA                     change_password@chng_delay1:
   969                           	callstack 0
   970   0000BA                     	ds	2
   971   0000BC                     _delay3:
   972                           	callstack 0
   973   0000BC                     	ds	2
   974   0000BE                     _delay2:
   975                           	callstack 0
   976   0000BE                     	ds	2
   977   0000C0                     _delay1:
   978                           	callstack 0
   979   0000C0                     	ds	2
   980   0000C2                     _min_count:
   981                           	callstack 0
   982   0000C2                     	ds	2
   983   0000C4                     change_password@chng_psw_temp:
   984                           	callstack 0
   985   0000C4                     	ds	5
   986   0000C9                     change_password@chng_psw:
   987                           	callstack 0
   988   0000C9                     	ds	5
   989   0000CE                     _psw_temp:
   990                           	callstack 0
   991   0000CE                     	ds	5
   992   0000D3                     _psw_arr:
   993                           	callstack 0
   994   0000D3                     	ds	5
   995                           
   996                           	psect	dataBANK0
   997   000060                     __pdataBANK0:
   998                           	callstack 0
   999   000060                     _list_address:
  1000                           	callstack 0
  1001   000060                     	ds	20
  1002   000074                     _event:
  1003                           	callstack 0
  1004   000074                     	ds	16
  1005   000084                     _wait:
  1006                           	callstack 0
  1007   000084                     	ds	2
  1008   000086                     _menu_name:
  1009                           	callstack 0
  1010   000086                     	ds	10
  1011   000090                     _time:
  1012                           	callstack 0
  1013   000090                     	ds	10
  1014   00009A                     change_password@chng_psw_temp_star:
  1015                           	callstack 0
  1016   00009A                     	ds	6
  1017   0000A0                     change_password@chng_psw_star:
  1018                           	callstack 0
  1019   0000A0                     	ds	6
  1020   0000A6                     _psw_star:
  1021                           	callstack 0
  1022   0000A6                     	ds	6
  1023                           
  1024                           	psect	cstackCOMRAM
  1025   000001                     __pcstackCOMRAM:
  1026                           	callstack 0
  1027   000001                     ?_strcmp:
  1028                           	callstack 0
  1029   000001                     ?_read_adc:
  1030                           	callstack 0
  1031   000001                     ?___awmod:
  1032                           	callstack 0
  1033   000001                     ?___xxtofl:
  1034                           	callstack 0
  1035   000001                     clcd_write@control_bit:
  1036                           	callstack 0
  1037   000001                     read_switches@detection_type:
  1038                           	callstack 0
  1039   000001                     i2c_write@data:
  1040                           	callstack 0
  1041   000001                     putch@byte:
  1042                           	callstack 0
  1043   000001                     ___awmod@dividend:
  1044                           	callstack 0
  1045   000001                     strcmp@l:
  1046                           	callstack 0
  1047   000001                     strcpy@dest:
  1048                           	callstack 0
  1049   000001                     ___xxtofl@val:
  1050                           	callstack 0
  1051                           
  1052                           ; 4 bytes @ 0x0
  1053   000001                     	ds	1
  1054   000002                     clcd_write@byte:
  1055                           	callstack 0
  1056   000002                     write_ds1307@data:
  1057                           	callstack 0
  1058   000002                     read_ds1307@address:
  1059                           	callstack 0
  1060   000002                     write_external_eeprom@data:
  1061                           	callstack 0
  1062   000002                     read_external_eeprom@address:
  1063                           	callstack 0
  1064   000002                     puts@s:
  1065                           	callstack 0
  1066                           
  1067                           ; 2 bytes @ 0x1
  1068   000002                     	ds	1
  1069   000003                     ??_read_adc:
  1070   000003                     write_ds1307@address:
  1071                           	callstack 0
  1072   000003                     read_ds1307@data:
  1073                           	callstack 0
  1074   000003                     read_external_eeprom@data:
  1075                           	callstack 0
  1076   000003                     clcd_print@data:
  1077                           	callstack 0
  1078   000003                     write_external_eeprom@i:
  1079                           	callstack 0
  1080   000003                     ___awmod@divisor:
  1081                           	callstack 0
  1082   000003                     strcmp@r:
  1083                           	callstack 0
  1084   000003                     strcpy@src:
  1085                           	callstack 0
  1086                           
  1087                           ; 2 bytes @ 0x2
  1088   000003                     	ds	1
  1089   000004                     init_ds1307@dummy:
  1090                           	callstack 0
  1091   000004                     read_password@psw_arr:
  1092                           	callstack 0
  1093                           
  1094                           ; 2 bytes @ 0x3
  1095   000004                     	ds	1
  1096   000005                     ??_strcmp:
  1097   000005                     ??___xxtofl:
  1098   000005                     clcd_print@addr:
  1099                           	callstack 0
  1100   000005                     write_external_eeprom@address:
  1101                           	callstack 0
  1102   000005                     ___awmod@counter:
  1103                           	callstack 0
  1104   000005                     read_adc@reg_val:
  1105                           	callstack 0
  1106   000005                     strcpy@s:
  1107                           	callstack 0
  1108                           
  1109                           ; 2 bytes @ 0x4
  1110   000005                     	ds	1
  1111   000006                     ___awmod@sign:
  1112                           	callstack 0
  1113   000006                     store_eeprom@adc_val:
  1114                           	callstack 0
  1115                           
  1116                           ; 4 bytes @ 0x5
  1117   000006                     	ds	1
  1118   000007                     ?___awdiv:
  1119                           	callstack 0
  1120   000007                     read_adc@channel:
  1121                           	callstack 0
  1122   000007                     ___awdiv@dividend:
  1123                           	callstack 0
  1124   000007                     strcpy@d:
  1125                           	callstack 0
  1126                           
  1127                           ; 2 bytes @ 0x6
  1128   000007                     	ds	2
  1129   000009                     ??_change_password:
  1130   000009                     ___xxtofl@sign:
  1131                           	callstack 0
  1132   000009                     ___awdiv@divisor:
  1133                           	callstack 0
  1134                           
  1135                           ; 2 bytes @ 0x8
  1136   000009                     	ds	1
  1137   00000A                     ??_store_eeprom:
  1138   00000A                     ___xxtofl@exp:
  1139                           	callstack 0
  1140                           
  1141                           ; 1 bytes @ 0x9
  1142   00000A                     	ds	1
  1143   00000B                     change_password@psw_key:
  1144                           	callstack 0
  1145   00000B                     store_eeprom@key:
  1146                           	callstack 0
  1147   00000B                     ___awdiv@counter:
  1148                           	callstack 0
  1149   00000B                     ___xxtofl@arg:
  1150                           	callstack 0
  1151                           
  1152                           ; 4 bytes @ 0xA
  1153   00000B                     	ds	1
  1154   00000C                     change_password@key:
  1155                           	callstack 0
  1156   00000C                     ___awdiv@sign:
  1157                           	callstack 0
  1158   00000C                     store_eeprom@i:
  1159                           	callstack 0
  1160                           
  1161                           ; 2 bytes @ 0xB
  1162   00000C                     	ds	1
  1163   00000D                     ___awdiv@quotient:
  1164                           	callstack 0
  1165                           
  1166                           ; 2 bytes @ 0xC
  1167   00000D                     	ds	2
  1168   00000F                     ??_get_data:
  1169   00000F                     ?___fldiv:
  1170                           	callstack 0
  1171   00000F                     clcd_putch@addr:
  1172                           	callstack 0
  1173   00000F                     ___fldiv@b:
  1174                           	callstack 0
  1175                           
  1176                           ; 4 bytes @ 0xE
  1177   00000F                     	ds	1
  1178   000010                     clcd_putch@data:
  1179                           	callstack 0
  1180                           
  1181                           ; 1 bytes @ 0xF
  1182   000010                     	ds	1
  1183   000011                     ??_view_log:
  1184   000011                     ??_set_time:
  1185   000011                     display_list@menu_name:
  1186                           	callstack 0
  1187   000011                     display_event@event:
  1188                           	callstack 0
  1189   000011                     display_speed@speed:
  1190                           	callstack 0
  1191   000011                     get_data@dwn_data:
  1192                           	callstack 0
  1193                           
  1194                           ; 16 bytes @ 0x10
  1195   000011                     	ds	2
  1196   000013                     display_list@list_index:
  1197                           	callstack 0
  1198   000013                     view_log@i:
  1199                           	callstack 0
  1200   000013                     ___fldiv@a:
  1201                           	callstack 0
  1202                           
  1203                           ; 4 bytes @ 0x12
  1204   000013                     	ds	1
  1205   000014                     display_list@direction_flag:
  1206                           	callstack 0
  1207                           
  1208                           ; 1 bytes @ 0x13
  1209   000014                     	ds	1
  1210   000015                     ??_display_list:
  1211                           
  1212                           ; 1 bytes @ 0x14
  1213   000015                     	ds	2
  1214   000017                     ??___fldiv:
  1215   000017                     view_log@temp:
  1216                           	callstack 0
  1217                           
  1218                           ; 1 bytes @ 0x16
  1219   000017                     	ds	4
  1220   00001B                     ___fldiv@rem:
  1221                           	callstack 0
  1222                           
  1223                           ; 4 bytes @ 0x1A
  1224   00001B                     	ds	4
  1225   00001F                     ___fldiv@sign:
  1226                           	callstack 0
  1227                           
  1228                           ; 1 bytes @ 0x1E
  1229   00001F                     	ds	1
  1230   000020                     ___fldiv@new_exp:
  1231                           	callstack 0
  1232                           
  1233                           ; 2 bytes @ 0x1F
  1234   000020                     	ds	1
  1235   000021                     get_data@ind:
  1236                           	callstack 0
  1237                           
  1238                           ; 1 bytes @ 0x20
  1239   000021                     	ds	1
  1240   000022                     get_data@add:
  1241                           	callstack 0
  1242   000022                     ___fldiv@grs:
  1243                           	callstack 0
  1244                           
  1245                           ; 4 bytes @ 0x21
  1246   000022                     	ds	1
  1247   000023                     get_data@temp:
  1248                           	callstack 0
  1249                           
  1250                           ; 1 bytes @ 0x22
  1251   000023                     	ds	1
  1252   000024                     ??_display_menu:
  1253   000024                     
  1254                           ; 1 bytes @ 0x23
  1255   000024                     	ds	2
  1256   000026                     ___fldiv@bexp:
  1257                           	callstack 0
  1258                           
  1259                           ; 1 bytes @ 0x25
  1260   000026                     	ds	1
  1261   000027                     ___fldiv@aexp:
  1262                           	callstack 0
  1263                           
  1264                           ; 1 bytes @ 0x26
  1265   000027                     	ds	1
  1266   000028                     ?___fltol:
  1267                           	callstack 0
  1268   000028                     ___fltol@f1:
  1269                           	callstack 0
  1270                           
  1271                           ; 4 bytes @ 0x27
  1272   000028                     	ds	1
  1273   000029                     display_menu@key:
  1274                           	callstack 0
  1275                           
  1276                           ; 1 bytes @ 0x28
  1277   000029                     	ds	1
  1278   00002A                     display_menu@key_viewlog:
  1279                           	callstack 0
  1280                           
  1281                           ; 1 bytes @ 0x29
  1282   00002A                     	ds	1
  1283   00002B                     login_BB@key:
  1284                           	callstack 0
  1285                           
  1286                           ; 1 bytes @ 0x2A
  1287   00002B                     	ds	1
  1288   00002C                     ??___fltol:
  1289                           
  1290                           ; 1 bytes @ 0x2B
  1291   00002C                     	ds	4
  1292   000030                     ___fltol@sign1:
  1293                           	callstack 0
  1294                           
  1295                           ; 1 bytes @ 0x2F
  1296   000030                     	ds	1
  1297   000031                     ___fltol@exp1:
  1298                           	callstack 0
  1299                           
  1300                           ; 1 bytes @ 0x30
  1301   000031                     	ds	1
  1302   000032                     display_dashboard@adc_reg_val:
  1303                           	callstack 0
  1304                           
  1305                           ; 2 bytes @ 0x31
  1306   000032                     	ds	2
  1307   000034                     display_dashboard@key:
  1308                           	callstack 0
  1309                           
  1310                           ; 1 bytes @ 0x33
  1311   000034                     	ds	1
  1312   000035                     
  1313                           ; 1 bytes @ 0x34
  1314 ;;
  1315 ;;Main: autosize = 0, tempsize = 0, incstack = 0, save=0
  1316 ;;
  1317 ;; *************** function _main *****************
  1318 ;; Defined at:
  1319 ;;		line 35 in file "main.c"
  1320 ;; Parameters:    Size  Location     Type
  1321 ;;		None
  1322 ;; Auto vars:     Size  Location     Type
  1323 ;;		None
  1324 ;; Return value:  Size  Location     Type
  1325 ;;                  1    wreg      void 
  1326 ;; Registers used:
  1327 ;;		wreg, fsr0l, fsr0h, fsr1l, fsr1h, fsr2l, fsr2h, status,2, status,0, tblptrl, tblptrh, tblptru, prodl, prodh, cstack
  1328 ;; Tracked objects:
  1329 ;;		On entry : 0/0
  1330 ;;		On exit  : 0/0
  1331 ;;		Unchanged: 0/0
  1332 ;; Data sizes:     COMRAM   BANK0   BANK1   BANK2   BANK3   BANK4   BANK5
  1333 ;;      Params:         0       0       0       0       0       0       0
  1334 ;;      Locals:         0       0       0       0       0       0       0
  1335 ;;      Temps:          0       0       0       0       0       0       0
  1336 ;;      Totals:         0       0       0       0       0       0       0
  1337 ;;Total ram usage:        0 bytes
  1338 ;; Hardware stack levels required when called: 10
  1339 ;; This function calls:
  1340 ;;		_display_dashboard
  1341 ;;		_init_config
  1342 ;;		_read_switches
  1343 ;;		_write_external_eeprom
  1344 ;; This function is called by:
  1345 ;;		Startup code after reset
  1346 ;; This function uses a non-reentrant model
  1347 ;;
  1348                           
  1349                           	psect	text0
  1350   002992                     __ptext0:
  1351                           	callstack 0
  1352   002992                     _main:
  1353                           	callstack 21
  1354   002992                     
  1355                           ;main.c: 36:     init_config();
  1356   002992  ECC7  F015         	call	_init_config	;wreg free
  1357                           
  1358                           ;main.c: 39:     write_external_eeprom(0x34,0);
  1359   002996  0E00               	movlw	0
  1360   002998  6E02               	movwf	write_external_eeprom@data^0,c
  1361   00299A  0E34               	movlw	52
  1362   00299C  EC12  F015         	call	_write_external_eeprom
  1363                           
  1364                           ;main.c: 40:     write_external_eeprom(0x34 +1,0);
  1365   0029A0  0E00               	movlw	0
  1366   0029A2  6E02               	movwf	write_external_eeprom@data^0,c
  1367   0029A4  0E35               	movlw	53
  1368   0029A6  EC12  F015         	call	_write_external_eeprom
  1369                           
  1370                           ;main.c: 41:     write_external_eeprom(0x34 +2,0);
  1371   0029AA  0E00               	movlw	0
  1372   0029AC  6E02               	movwf	write_external_eeprom@data^0,c
  1373   0029AE  0E36               	movlw	54
  1374   0029B0  EC12  F015         	call	_write_external_eeprom
  1375                           
  1376                           ;main.c: 42:     write_external_eeprom(0x34 +3,0);
  1377   0029B4  0E00               	movlw	0
  1378   0029B6  6E02               	movwf	write_external_eeprom@data^0,c
  1379   0029B8  0E37               	movlw	55
  1380   0029BA  EC12  F015         	call	_write_external_eeprom
  1381                           
  1382                           ;main.c: 43:     write_external_eeprom(0x33,0);
  1383   0029BE  0E00               	movlw	0
  1384   0029C0  6E02               	movwf	write_external_eeprom@data^0,c
  1385   0029C2  0E33               	movlw	51
  1386   0029C4  EC12  F015         	call	_write_external_eeprom
  1387   0029C8                     l34:
  1388                           
  1389                           ;main.c: 46:     {;main.c: 48:         key = read_switches(1);
  1390   0029C8  0E01               	movlw	1
  1391   0029CA  EC3E  F013         	call	_read_switches
  1392   0029CE  6E52               	movwf	_key^0,c
  1393   0029D0                     
  1394                           ;main.c: 50:         display_dashboard(key);
  1395   0029D0  5052               	movf	_key^0,w,c
  1396   0029D2  ECAA  F00A         	call	_display_dashboard
  1397   0029D6  EFE4  F014         	goto	l34
  1398   0029DA  EF07  F000         	goto	start
  1399   0029DE                     __end_of_main:
  1400                           	callstack 0
  1401                           
  1402 ;; *************** function _init_config *****************
  1403 ;; Defined at:
  1404 ;;		line 22 in file "main.c"
  1405 ;; Parameters:    Size  Location     Type
  1406 ;;		None
  1407 ;; Auto vars:     Size  Location     Type
  1408 ;;		None
  1409 ;; Return value:  Size  Location     Type
  1410 ;;                  1    wreg      void 
  1411 ;; Registers used:
  1412 ;;		wreg, status,2, status,0, cstack
  1413 ;; Tracked objects:
  1414 ;;		On entry : 0/0
  1415 ;;		On exit  : 0/0
  1416 ;;		Unchanged: 0/0
  1417 ;; Data sizes:     COMRAM   BANK0   BANK1   BANK2   BANK3   BANK4   BANK5
  1418 ;;      Params:         0       0       0       0       0       0       0
  1419 ;;      Locals:         0       0       0       0       0       0       0
  1420 ;;      Temps:          0       0       0       0       0       0       0
  1421 ;;      Totals:         0       0       0       0       0       0       0
  1422 ;;Total ram usage:        0 bytes
  1423 ;; Hardware stack levels used: 1
  1424 ;; Hardware stack levels required when called: 6
  1425 ;; This function calls:
  1426 ;;		_init_adc
  1427 ;;		_init_clcd
  1428 ;;		_init_ds1307
  1429 ;;		_init_i2c
  1430 ;;		_init_matrix_keypad
  1431 ;;		_init_timer
  1432 ;;		_init_uart
  1433 ;; This function is called by:
  1434 ;;		_main
  1435 ;; This function uses a non-reentrant model
  1436 ;;
  1437                           
  1438                           	psect	text1
  1439   002B8E                     __ptext1:
  1440                           	callstack 0
  1441   002B8E                     _init_config:
  1442                           	callstack 24
  1443   002B8E                     
  1444                           ;main.c: 24:     init_matrix_keypad();
  1445   002B8E  EC3E  F016         	call	_init_matrix_keypad	;wreg free
  1446                           
  1447                           ;main.c: 25:     init_clcd();
  1448   002B92  EC6F  F015         	call	_init_clcd	;wreg free
  1449   002B96                     
  1450                           ;main.c: 26:     init_timer();
  1451   002B96  EC07  F016         	call	_init_timer	;wreg free
  1452   002B9A                     
  1453                           ;main.c: 27:     init_adc();
  1454   002B9A  ECD8  F015         	call	_init_adc	;wreg free
  1455   002B9E                     
  1456                           ;main.c: 28:     init_i2c();
  1457   002B9E  EC1F  F016         	call	_init_i2c	;wreg free
  1458   002BA2                     
  1459                           ;main.c: 29:  init_ds1307();
  1460   002BA2  EC79  F014         	call	_init_ds1307	;wreg free
  1461   002BA6                     
  1462                           ;main.c: 30:     init_uart();
  1463   002BA6  EC35  F016         	call	_init_uart	;wreg free
  1464   002BAA                     
  1465                           ;main.c: 31:     PEIE = 1;
  1466   002BAA  8CF2               	bsf	4082,6,c	;volatile
  1467   002BAC                     
  1468                           ;main.c: 32:     GIE = 1;
  1469   002BAC  8EF2               	bsf	4082,7,c	;volatile
  1470   002BAE  0012               	return		;funcret
  1471   002BB0                     __end_of_init_config:
  1472                           	callstack 0
  1473                           
  1474 ;; *************** function _init_uart *****************
  1475 ;; Defined at:
  1476 ;;		line 4 in file "uart.c"
  1477 ;; Parameters:    Size  Location     Type
  1478 ;;		None
  1479 ;; Auto vars:     Size  Location     Type
  1480 ;;		None
  1481 ;; Return value:  Size  Location     Type
  1482 ;;                  1    wreg      void 
  1483 ;; Registers used:
  1484 ;;		wreg, status,2
  1485 ;; Tracked objects:
  1486 ;;		On entry : 0/0
  1487 ;;		On exit  : 0/0
  1488 ;;		Unchanged: 0/0
  1489 ;; Data sizes:     COMRAM   BANK0   BANK1   BANK2   BANK3   BANK4   BANK5
  1490 ;;      Params:         0       0       0       0       0       0       0
  1491 ;;      Locals:         0       0       0       0       0       0       0
  1492 ;;      Temps:          0       0       0       0       0       0       0
  1493 ;;      Totals:         0       0       0       0       0       0       0
  1494 ;;Total ram usage:        0 bytes
  1495 ;; Hardware stack levels used: 1
  1496 ;; Hardware stack levels required when called: 1
  1497 ;; This function calls:
  1498 ;;		Nothing
  1499 ;; This function is called by:
  1500 ;;		_init_config
  1501 ;; This function uses a non-reentrant model
  1502 ;;
  1503                           
  1504                           	psect	text2
  1505   002C6A                     __ptext2:
  1506                           	callstack 0
  1507   002C6A                     _init_uart:
  1508                           	callstack 28
  1509   002C6A                     
  1510                           ;uart.c: 7:  TRISC7 = 1;
  1511   002C6A  8E94               	bsf	3988,7,c	;volatile
  1512                           
  1513                           ;uart.c: 8:  TRISC6 = 0;
  1514   002C6C  9C94               	bcf	3988,6,c	;volatile
  1515                           
  1516                           ;uart.c: 11:  BRGH = 1;
  1517   002C6E  84AC               	bsf	4012,2,c	;volatile
  1518                           
  1519                           ;uart.c: 12:  SPEN = 1;
  1520   002C70  8EAB               	bsf	4011,7,c	;volatile
  1521                           
  1522                           ;uart.c: 16:  CREN = 1;
  1523   002C72  88AB               	bsf	4011,4,c	;volatile
  1524   002C74                     
  1525                           ;uart.c: 22:  SPBRG = 129;
  1526   002C74  0E81               	movlw	129
  1527   002C76  6EAF               	movwf	175,c	;volatile
  1528   002C78                     
  1529                           ;uart.c: 24:     RCIE = 1;
  1530   002C78  8A9D               	bsf	3997,5,c	;volatile
  1531   002C7A  0012               	return		;funcret
  1532   002C7C                     __end_of_init_uart:
  1533                           	callstack 0
  1534                           
  1535 ;; *************** function _init_timer *****************
  1536 ;; Defined at:
  1537 ;;		line 7 in file "timer.c"
  1538 ;; Parameters:    Size  Location     Type
  1539 ;;		None
  1540 ;; Auto vars:     Size  Location     Type
  1541 ;;		None
  1542 ;; Return value:  Size  Location     Type
  1543 ;;                  1    wreg      void 
  1544 ;; Registers used:
  1545 ;;		wreg, status,2
  1546 ;; Tracked objects:
  1547 ;;		On entry : 0/0
  1548 ;;		On exit  : 0/0
  1549 ;;		Unchanged: 0/0
  1550 ;; Data sizes:     COMRAM   BANK0   BANK1   BANK2   BANK3   BANK4   BANK5
  1551 ;;      Params:         0       0       0       0       0       0       0
  1552 ;;      Locals:         0       0       0       0       0       0       0
  1553 ;;      Temps:          0       0       0       0       0       0       0
  1554 ;;      Totals:         0       0       0       0       0       0       0
  1555 ;;Total ram usage:        0 bytes
  1556 ;; Hardware stack levels used: 1
  1557 ;; Hardware stack levels required when called: 1
  1558 ;; This function calls:
  1559 ;;		Nothing
  1560 ;; This function is called by:
  1561 ;;		_init_config
  1562 ;; This function uses a non-reentrant model
  1563 ;;
  1564                           
  1565                           	psect	text3
  1566   002C0E                     __ptext3:
  1567                           	callstack 0
  1568   002C0E                     _init_timer:
  1569                           	callstack 28
  1570   002C0E                     
  1571                           ;timer.c: 8:     T0CS = 0;
  1572   002C0E  9AD5               	bcf	4053,5,c	;volatile
  1573   002C10                     
  1574                           ;timer.c: 9:     TMR0 = 6;
  1575   002C10  0E00               	movlw	0
  1576   002C12  6ED7               	movwf	215,c	;volatile
  1577   002C14  0E06               	movlw	6
  1578   002C16  6ED6               	movwf	214,c	;volatile
  1579   002C18                     
  1580                           ;timer.c: 10:     PSA = 0;
  1581   002C18  96D5               	bcf	4053,3,c	;volatile
  1582   002C1A                     
  1583                           ;timer.c: 11:     T0PS0 = 0;
  1584   002C1A  90D5               	bcf	4053,0,c	;volatile
  1585   002C1C                     
  1586                           ;timer.c: 12:     T0PS1 = 0;
  1587   002C1C  92D5               	bcf	4053,1,c	;volatile
  1588   002C1E                     
  1589                           ;timer.c: 13:     T0PS2 = 1;
  1590   002C1E  84D5               	bsf	4053,2,c	;volatile
  1591   002C20                     
  1592                           ;timer.c: 14:     TMR0IF = 0;
  1593   002C20  94F2               	bcf	4082,2,c	;volatile
  1594   002C22                     
  1595                           ;timer.c: 15:     TMR0IE = 0;
  1596   002C22  9AF2               	bcf	4082,5,c	;volatile
  1597   002C24  0012               	return		;funcret
  1598   002C26                     __end_of_init_timer:
  1599                           	callstack 0
  1600                           
  1601 ;; *************** function _init_matrix_keypad *****************
  1602 ;; Defined at:
  1603 ;;		line 4 in file "matrix_keypad.c"
  1604 ;; Parameters:    Size  Location     Type
  1605 ;;		None
  1606 ;; Auto vars:     Size  Location     Type
  1607 ;;		None
  1608 ;; Return value:  Size  Location     Type
  1609 ;;                  1    wreg      void 
  1610 ;; Registers used:
  1611 ;;		wreg, status,2, status,0
  1612 ;; Tracked objects:
  1613 ;;		On entry : 0/0
  1614 ;;		On exit  : 0/0
  1615 ;;		Unchanged: 0/0
  1616 ;; Data sizes:     COMRAM   BANK0   BANK1   BANK2   BANK3   BANK4   BANK5
  1617 ;;      Params:         0       0       0       0       0       0       0
  1618 ;;      Locals:         0       0       0       0       0       0       0
  1619 ;;      Temps:          0       0       0       0       0       0       0
  1620 ;;      Totals:         0       0       0       0       0       0       0
  1621 ;;Total ram usage:        0 bytes
  1622 ;; Hardware stack levels used: 1
  1623 ;; Hardware stack levels required when called: 1
  1624 ;; This function calls:
  1625 ;;		Nothing
  1626 ;; This function is called by:
  1627 ;;		_init_config
  1628 ;; This function uses a non-reentrant model
  1629 ;;
  1630                           
  1631                           	psect	text4
  1632   002C7C                     __ptext4:
  1633                           	callstack 0
  1634   002C7C                     _init_matrix_keypad:
  1635                           	callstack 28
  1636   002C7C                     
  1637                           ;matrix_keypad.c: 7:  ADCON1 = 0x0F;
  1638   002C7C  0E0F               	movlw	15
  1639   002C7E  6EC1               	movwf	193,c	;volatile
  1640                           
  1641                           ;matrix_keypad.c: 10:  TRISB = 0x1E;
  1642   002C80  0E1E               	movlw	30
  1643   002C82  6E93               	movwf	147,c	;volatile
  1644   002C84                     
  1645                           ;matrix_keypad.c: 13:  RBPU = 0;
  1646   002C84  9EF1               	bcf	4081,7,c	;volatile
  1647   002C86                     
  1648                           ;matrix_keypad.c: 15:  PORTB = PORTB | 0xE0;
  1649   002C86  5081               	movf	129,w,c	;volatile
  1650   002C88  09E0               	iorlw	224
  1651   002C8A  6E81               	movwf	129,c	;volatile
  1652   002C8C  0012               	return		;funcret
  1653   002C8E                     __end_of_init_matrix_keypad:
  1654                           	callstack 0
  1655                           
  1656 ;; *************** function _init_i2c *****************
  1657 ;; Defined at:
  1658 ;;		line 4 in file "i2c.c"
  1659 ;; Parameters:    Size  Location     Type
  1660 ;;		None
  1661 ;; Auto vars:     Size  Location     Type
  1662 ;;		None
  1663 ;; Return value:  Size  Location     Type
  1664 ;;                  1    wreg      void 
  1665 ;; Registers used:
  1666 ;;		wreg, status,2
  1667 ;; Tracked objects:
  1668 ;;		On entry : 0/0
  1669 ;;		On exit  : 0/0
  1670 ;;		Unchanged: 0/0
  1671 ;; Data sizes:     COMRAM   BANK0   BANK1   BANK2   BANK3   BANK4   BANK5
  1672 ;;      Params:         0       0       0       0       0       0       0
  1673 ;;      Locals:         0       0       0       0       0       0       0
  1674 ;;      Temps:          0       0       0       0       0       0       0
  1675 ;;      Totals:         0       0       0       0       0       0       0
  1676 ;;Total ram usage:        0 bytes
  1677 ;; Hardware stack levels used: 1
  1678 ;; Hardware stack levels required when called: 1
  1679 ;; This function calls:
  1680 ;;		Nothing
  1681 ;; This function is called by:
  1682 ;;		_init_config
  1683 ;; This function uses a non-reentrant model
  1684 ;;
  1685                           
  1686                           	psect	text5
  1687   002C3E                     __ptext5:
  1688                           	callstack 0
  1689   002C3E                     _init_i2c:
  1690                           	callstack 28
  1691   002C3E                     
  1692                           ;i2c.c: 7:  TRISC3 = 1;
  1693   002C3E  8694               	bsf	3988,3,c	;volatile
  1694                           
  1695                           ;i2c.c: 8:  TRISC4 = 1;
  1696   002C40  8894               	bsf	3988,4,c	;volatile
  1697   002C42                     
  1698                           ;i2c.c: 10:  SSPCON1 = 0x28;
  1699   002C42  0E28               	movlw	40
  1700   002C44  6EC6               	movwf	198,c	;volatile
  1701                           
  1702                           ;i2c.c: 12:  SSPADD = 0x31;
  1703   002C46  0E31               	movlw	49
  1704   002C48  6EC8               	movwf	200,c	;volatile
  1705   002C4A                     
  1706                           ;i2c.c: 14:  CKE = 0;
  1707   002C4A  9CC7               	bcf	4039,6,c	;volatile
  1708   002C4C                     
  1709                           ;i2c.c: 16:  SMP = 1;
  1710   002C4C  8EC7               	bsf	4039,7,c	;volatile
  1711   002C4E                     
  1712                           ;i2c.c: 18:  SSPIF = 0;
  1713   002C4E  969E               	bcf	3998,3,c	;volatile
  1714   002C50                     
  1715                           ;i2c.c: 20:  BCLIF = 0;
  1716   002C50  96A1               	bcf	4001,3,c	;volatile
  1717   002C52  0012               	return		;funcret
  1718   002C54                     __end_of_init_i2c:
  1719                           	callstack 0
  1720                           
  1721 ;; *************** function _init_ds1307 *****************
  1722 ;; Defined at:
  1723 ;;		line 42 in file "rtc.c"
  1724 ;; Parameters:    Size  Location     Type
  1725 ;;		None
  1726 ;; Auto vars:     Size  Location     Type
  1727 ;;  dummy           1    3[COMRAM] unsigned char 
  1728 ;; Return value:  Size  Location     Type
  1729 ;;                  1    wreg      void 
  1730 ;; Registers used:
  1731 ;;		wreg, status,2, cstack
  1732 ;; Tracked objects:
  1733 ;;		On entry : 0/0
  1734 ;;		On exit  : 0/0
  1735 ;;		Unchanged: 0/0
  1736 ;; Data sizes:     COMRAM   BANK0   BANK1   BANK2   BANK3   BANK4   BANK5
  1737 ;;      Params:         0       0       0       0       0       0       0
  1738 ;;      Locals:         1       0       0       0       0       0       0
  1739 ;;      Temps:          0       0       0       0       0       0       0
  1740 ;;      Totals:         1       0       0       0       0       0       0
  1741 ;;Total ram usage:        1 bytes
  1742 ;; Hardware stack levels used: 1
  1743 ;; Hardware stack levels required when called: 5
  1744 ;; This function calls:
  1745 ;;		_read_ds1307
  1746 ;;		_write_ds1307
  1747 ;; This function is called by:
  1748 ;;		_init_config
  1749 ;; This function uses a non-reentrant model
  1750 ;;
  1751                           
  1752                           	psect	text6
  1753   0028F2                     __ptext6:
  1754                           	callstack 0
  1755   0028F2                     _init_ds1307:
  1756                           	callstack 24
  1757   0028F2                     
  1758                           ;rtc.c: 44:  unsigned char dummy;;rtc.c: 47:  dummy = read_ds1307(0x00);
  1759   0028F2  0E00               	movlw	0
  1760   0028F4  EC9F  F015         	call	_read_ds1307
  1761   0028F8  6E04               	movwf	init_ds1307@dummy^0,c
  1762                           
  1763                           ;rtc.c: 49:     write_ds1307(0x00, 0x80);
  1764   0028FA  0E80               	movlw	128
  1765   0028FC  6E02               	movwf	write_ds1307@data^0,c
  1766   0028FE  0E00               	movlw	0
  1767   002900  ECF8  F015         	call	_write_ds1307
  1768                           
  1769                           ;rtc.c: 52:     dummy = read_ds1307(0x01);
  1770   002904  0E01               	movlw	1
  1771   002906  EC9F  F015         	call	_read_ds1307
  1772   00290A  6E04               	movwf	init_ds1307@dummy^0,c
  1773                           
  1774                           ;rtc.c: 54:     write_ds1307(0x01, 0x01);
  1775   00290C  0E01               	movlw	1
  1776   00290E  6E02               	movwf	write_ds1307@data^0,c
  1777   002910  0E01               	movlw	1
  1778   002912  ECF8  F015         	call	_write_ds1307
  1779                           
  1780                           ;rtc.c: 57:  dummy = read_ds1307(0x02);
  1781   002916  0E02               	movlw	2
  1782   002918  EC9F  F015         	call	_read_ds1307
  1783   00291C  6E04               	movwf	init_ds1307@dummy^0,c
  1784                           
  1785                           ;rtc.c: 59:     write_ds1307(0x02, 0x23);
  1786   00291E  0E23               	movlw	35
  1787   002920  6E02               	movwf	write_ds1307@data^0,c
  1788   002922  0E02               	movlw	2
  1789   002924  ECF8  F015         	call	_write_ds1307
  1790                           
  1791                           ;rtc.c: 74:  write_ds1307(0x07, 0x93);
  1792   002928  0E93               	movlw	147
  1793   00292A  6E02               	movwf	write_ds1307@data^0,c
  1794   00292C  0E07               	movlw	7
  1795   00292E  ECF8  F015         	call	_write_ds1307
  1796                           
  1797                           ;rtc.c: 77:  dummy = read_ds1307(0x00);
  1798   002932  0E00               	movlw	0
  1799   002934  EC9F  F015         	call	_read_ds1307
  1800   002938  6E04               	movwf	init_ds1307@dummy^0,c
  1801                           
  1802                           ;rtc.c: 79:     write_ds1307(0x00, 0x01 & 0x7F);
  1803   00293A  0E01               	movlw	1
  1804   00293C  6E02               	movwf	write_ds1307@data^0,c
  1805   00293E  0E00               	movlw	0
  1806   002940  ECF8  F015         	call	_write_ds1307
  1807   002944  0012               	return		;funcret
  1808   002946                     __end_of_init_ds1307:
  1809                           	callstack 0
  1810                           
  1811 ;; *************** function _init_clcd *****************
  1812 ;; Defined at:
  1813 ;;		line 27 in file "clcd.c"
  1814 ;; Parameters:    Size  Location     Type
  1815 ;;		None
  1816 ;; Auto vars:     Size  Location     Type
  1817 ;;		None
  1818 ;; Return value:  Size  Location     Type
  1819 ;;                  1    wreg      void 
  1820 ;; Registers used:
  1821 ;;		wreg, status,2, status,0, cstack
  1822 ;; Tracked objects:
  1823 ;;		On entry : 0/0
  1824 ;;		On exit  : 0/0
  1825 ;;		Unchanged: 0/0
  1826 ;; Data sizes:     COMRAM   BANK0   BANK1   BANK2   BANK3   BANK4   BANK5
  1827 ;;      Params:         0       0       0       0       0       0       0
  1828 ;;      Locals:         0       0       0       0       0       0       0
  1829 ;;      Temps:          0       0       0       0       0       0       0
  1830 ;;      Totals:         0       0       0       0       0       0       0
  1831 ;;Total ram usage:        0 bytes
  1832 ;; Hardware stack levels used: 1
  1833 ;; Hardware stack levels required when called: 2
  1834 ;; This function calls:
  1835 ;;		_clcd_write
  1836 ;; This function is called by:
  1837 ;;		_init_config
  1838 ;; This function uses a non-reentrant model
  1839 ;;
  1840                           
  1841                           	psect	text7
  1842   002ADE                     __ptext7:
  1843                           	callstack 0
  1844   002ADE                     _init_clcd:
  1845                           	callstack 27
  1846   002ADE                     
  1847                           ;clcd.c: 30:  TRISD = 0x00;
  1848   002ADE  0E00               	movlw	0
  1849   002AE0  6E95               	movwf	149,c	;volatile
  1850   002AE2                     
  1851                           ;clcd.c: 32:  TRISC = TRISC & 0xF8;
  1852   002AE2  5094               	movf	148,w,c	;volatile
  1853   002AE4  0BF8               	andlw	248
  1854   002AE6  6E94               	movwf	148,c	;volatile
  1855   002AE8                     
  1856                           ;clcd.c: 34:  RC0 = 0;
  1857   002AE8  9082               	bcf	3970,0,c	;volatile
  1858   002AEA                     
  1859                           ;clcd.c: 36:  clcd_write(0x02, 0);
  1860   002AEA  0E00               	movlw	0
  1861   002AEC  6E01               	movwf	clcd_write@control_bit^0,c
  1862   002AEE  0E02               	movlw	2
  1863   002AF0  EC52  F015         	call	_clcd_write
  1864   002AF4                     
  1865                           ;clcd.c: 37:  clcd_write(0x38, 0);
  1866   002AF4  0E00               	movlw	0
  1867   002AF6  6E01               	movwf	clcd_write@control_bit^0,c
  1868   002AF8  0E38               	movlw	56
  1869   002AFA  EC52  F015         	call	_clcd_write
  1870   002AFE                     
  1871                           ;clcd.c: 38:  clcd_write(0x0C, 0);
  1872   002AFE  0E00               	movlw	0
  1873   002B00  6E01               	movwf	clcd_write@control_bit^0,c
  1874   002B02  0E0C               	movlw	12
  1875   002B04  EC52  F015         	call	_clcd_write
  1876   002B08                     
  1877                           ;clcd.c: 39:  clcd_write(0x01, 0);
  1878   002B08  0E00               	movlw	0
  1879   002B0A  6E01               	movwf	clcd_write@control_bit^0,c
  1880   002B0C  0E01               	movlw	1
  1881   002B0E  EC52  F015         	call	_clcd_write
  1882   002B12  0012               	return		;funcret
  1883   002B14                     __end_of_init_clcd:
  1884                           	callstack 0
  1885                           
  1886 ;; *************** function _init_adc *****************
  1887 ;; Defined at:
  1888 ;;		line 4 in file "adc.c"
  1889 ;; Parameters:    Size  Location     Type
  1890 ;;		None
  1891 ;; Auto vars:     Size  Location     Type
  1892 ;;		None
  1893 ;; Return value:  Size  Location     Type
  1894 ;;                  1    wreg      void 
  1895 ;; Registers used:
  1896 ;;		wreg, status,2
  1897 ;; Tracked objects:
  1898 ;;		On entry : 0/0
  1899 ;;		On exit  : 0/0
  1900 ;;		Unchanged: 0/0
  1901 ;; Data sizes:     COMRAM   BANK0   BANK1   BANK2   BANK3   BANK4   BANK5
  1902 ;;      Params:         0       0       0       0       0       0       0
  1903 ;;      Locals:         0       0       0       0       0       0       0
  1904 ;;      Temps:          0       0       0       0       0       0       0
  1905 ;;      Totals:         0       0       0       0       0       0       0
  1906 ;;Total ram usage:        0 bytes
  1907 ;; Hardware stack levels used: 1
  1908 ;; Hardware stack levels required when called: 1
  1909 ;; This function calls:
  1910 ;;		Nothing
  1911 ;; This function is called by:
  1912 ;;		_init_config
  1913 ;; This function uses a non-reentrant model
  1914 ;;
  1915                           
  1916                           	psect	text8
  1917   002BB0                     __ptext8:
  1918                           	callstack 0
  1919   002BB0                     _init_adc:
  1920                           	callstack 28
  1921   002BB0                     
  1922                           ;adc.c: 7:  ADFM = 1;
  1923   002BB0  8EC0               	bsf	4032,7,c	;volatile
  1924                           
  1925                           ;adc.c: 13:  ACQT2 = 0;
  1926   002BB2  9AC0               	bcf	4032,5,c	;volatile
  1927                           
  1928                           ;adc.c: 14:  ACQT1 = 1;
  1929   002BB4  88C0               	bsf	4032,4,c	;volatile
  1930                           
  1931                           ;adc.c: 15:  ACQT0 = 0;
  1932   002BB6  96C0               	bcf	4032,3,c	;volatile
  1933                           
  1934                           ;adc.c: 21:  ADCS0 = 0;
  1935   002BB8  90C0               	bcf	4032,0,c	;volatile
  1936                           
  1937                           ;adc.c: 22:  ADCS1 = 1;
  1938   002BBA  82C0               	bsf	4032,1,c	;volatile
  1939                           
  1940                           ;adc.c: 23:  ADCS2 = 0;
  1941   002BBC  94C0               	bcf	4032,2,c	;volatile
  1942                           
  1943                           ;adc.c: 26:  GODONE = 0;
  1944   002BBE  92C2               	bcf	4034,1,c	;volatile
  1945                           
  1946                           ;adc.c: 31:  VCFG1 = 0;
  1947   002BC0  9AC1               	bcf	4033,5,c	;volatile
  1948                           
  1949                           ;adc.c: 33:  VCFG0 = 0;
  1950   002BC2  98C1               	bcf	4033,4,c	;volatile
  1951   002BC4                     
  1952                           ;adc.c: 36:  ADRESH = 0;
  1953   002BC4  0E00               	movlw	0
  1954   002BC6  6EC4               	movwf	196,c	;volatile
  1955                           
  1956                           ;adc.c: 37:  ADRESL = 0;
  1957   002BC8  0E00               	movlw	0
  1958   002BCA  6EC3               	movwf	195,c	;volatile
  1959   002BCC                     
  1960                           ;adc.c: 40:  ADON = 1;
  1961   002BCC  80C2               	bsf	4034,0,c	;volatile
  1962   002BCE  0012               	return		;funcret
  1963   002BD0                     __end_of_init_adc:
  1964                           	callstack 0
  1965                           
  1966 ;; *************** function _display_dashboard *****************
  1967 ;; Defined at:
  1968 ;;		line 23 in file "dashboard.c"
  1969 ;; Parameters:    Size  Location     Type
  1970 ;;  key             1    wreg     unsigned char 
  1971 ;; Auto vars:     Size  Location     Type
  1972 ;;  key             1   51[COMRAM] unsigned char 
  1973 ;;  adc_reg_val     2   49[COMRAM] unsigned short 
  1974 ;; Return value:  Size  Location     Type
  1975 ;;                  1    wreg      void 
  1976 ;; Registers used:
  1977 ;;		wreg, fsr0l, fsr0h, fsr1l, fsr1h, fsr2l, fsr2h, status,2, status,0, tblptrl, tblptrh, tblptru, prodl, prodh, cstack
  1978 ;; Tracked objects:
  1979 ;;		On entry : 0/0
  1980 ;;		On exit  : 0/0
  1981 ;;		Unchanged: 0/0
  1982 ;; Data sizes:     COMRAM   BANK0   BANK1   BANK2   BANK3   BANK4   BANK5
  1983 ;;      Params:         0       0       0       0       0       0       0
  1984 ;;      Locals:         3       0       0       0       0       0       0
  1985 ;;      Temps:          0       0       0       0       0       0       0
  1986 ;;      Totals:         3       0       0       0       0       0       0
  1987 ;;Total ram usage:        3 bytes
  1988 ;; Hardware stack levels used: 1
  1989 ;; Hardware stack levels required when called: 9
  1990 ;; This function calls:
  1991 ;;		___fldiv
  1992 ;;		___fltol
  1993 ;;		___xxtofl
  1994 ;;		_clcd_print
  1995 ;;		_display_event
  1996 ;;		_display_speed
  1997 ;;		_display_time
  1998 ;;		_get_time
  1999 ;;		_login_BB
  2000 ;;		_read_adc
  2001 ;;		_store_eeprom
  2002 ;; This function is called by:
  2003 ;;		_main
  2004 ;; This function uses a non-reentrant model
  2005 ;;
  2006                           
  2007                           	psect	text9
  2008   001554                     __ptext9:
  2009                           	callstack 0
  2010   001554                     _display_dashboard:
  2011                           	callstack 21
  2012                           
  2013                           ;incstack = 0
  2014                           ;display_dashboard@key stored from wreg
  2015   001554  6E34               	movwf	display_dashboard@key^0,c
  2016   001556                     
  2017                           ;dashboard.c: 24:     unsigned short adc_reg_val;;dashboard.c: 26:     if(psw_mode_flag 
      +                          == 1 || key == 11)
  2018   001556  044D               	decf	_psw_mode_flag^0,w,c
  2019   001558  B4D8               	btfsc	status,2,c
  2020   00155A  EFB1  F00A         	goto	u3901
  2021   00155E  EFB3  F00A         	goto	u3900
  2022   001562                     u3901:
  2023   001562  EFBC  F00A         	goto	l4374
  2024   001566                     u3900:
  2025   001566  0E0B               	movlw	11
  2026   001568  1834               	xorwf	display_dashboard@key^0,w,c
  2027   00156A  A4D8               	btfss	status,2,c
  2028   00156C  EFBA  F00A         	goto	u3911
  2029   001570  EFBC  F00A         	goto	u3910
  2030   001574                     u3911:
  2031   001574  EF73  F00B         	goto	l4416
  2032   001578                     u3910:
  2033   001578                     l4374:
  2034                           
  2035                           ;dashboard.c: 27:     {;dashboard.c: 29:         if(key == 1 || key == 2 || key == 3)
  2036   001578  0434               	decf	display_dashboard@key^0,w,c
  2037   00157A  B4D8               	btfsc	status,2,c
  2038   00157C  EFC2  F00A         	goto	u3921
  2039   001580  EFC4  F00A         	goto	u3920
  2040   001584                     u3921:
  2041   001584  EFD6  F00A         	goto	l4380
  2042   001588                     u3920:
  2043   001588  0E02               	movlw	2
  2044   00158A  1834               	xorwf	display_dashboard@key^0,w,c
  2045   00158C  B4D8               	btfsc	status,2,c
  2046   00158E  EFCB  F00A         	goto	u3931
  2047   001592  EFCD  F00A         	goto	u3930
  2048   001596                     u3931:
  2049   001596  EFD6  F00A         	goto	l4380
  2050   00159A                     u3930:
  2051   00159A  0E03               	movlw	3
  2052   00159C  1834               	xorwf	display_dashboard@key^0,w,c
  2053   00159E  A4D8               	btfss	status,2,c
  2054   0015A0  EFD4  F00A         	goto	u3941
  2055   0015A4  EFD6  F00A         	goto	u3940
  2056   0015A8                     u3941:
  2057   0015A8  EF6C  F00B         	goto	l4412
  2058   0015AC                     u3940:
  2059   0015AC                     l4380:
  2060                           
  2061                           ;dashboard.c: 30:         {;dashboard.c: 31:             if(key == 1)
  2062   0015AC  0434               	decf	display_dashboard@key^0,w,c
  2063   0015AE  A4D8               	btfss	status,2,c
  2064   0015B0  EFDC  F00A         	goto	u3951
  2065   0015B4  EFDE  F00A         	goto	u3950
  2066   0015B8                     u3951:
  2067   0015B8  EFE2  F00A         	goto	l4384
  2068   0015BC                     u3950:
  2069   0015BC                     
  2070                           ;dashboard.c: 32:             {;dashboard.c: 33:                    event_index = 7;
  2071   0015BC  0E07               	movlw	7
  2072   0015BE  6E41               	movwf	_event_index^0,c
  2073                           
  2074                           ;dashboard.c: 34:             }
  2075   0015C0  EF29  F00B         	goto	l4404
  2076   0015C4                     l4384:
  2077   0015C4  0E07               	movlw	7
  2078   0015C6  1841               	xorwf	_event_index^0,w,c
  2079   0015C8  A4D8               	btfss	status,2,c
  2080   0015CA  EFE9  F00A         	goto	u3961
  2081   0015CE  EFEB  F00A         	goto	u3960
  2082   0015D2                     u3961:
  2083   0015D2  EF01  F00B         	goto	l4392
  2084   0015D6                     u3960:
  2085   0015D6  0E02               	movlw	2
  2086   0015D8  1834               	xorwf	display_dashboard@key^0,w,c
  2087   0015DA  B4D8               	btfsc	status,2,c
  2088   0015DC  EFF2  F00A         	goto	u3971
  2089   0015E0  EFF4  F00A         	goto	u3970
  2090   0015E4                     u3971:
  2091   0015E4  EFFD  F00A         	goto	l4390
  2092   0015E8                     u3970:
  2093   0015E8  0E03               	movlw	3
  2094   0015EA  1834               	xorwf	display_dashboard@key^0,w,c
  2095   0015EC  A4D8               	btfss	status,2,c
  2096   0015EE  EFFB  F00A         	goto	u3981
  2097   0015F2  EFFD  F00A         	goto	u3980
  2098   0015F6                     u3981:
  2099   0015F6  EF01  F00B         	goto	l4392
  2100   0015FA                     u3980:
  2101   0015FA                     l4390:
  2102                           
  2103                           ;dashboard.c: 36:                 event_index = 2;
  2104   0015FA  0E02               	movlw	2
  2105   0015FC  6E41               	movwf	_event_index^0,c
  2106   0015FE  EF29  F00B         	goto	l4404
  2107   001602                     l4392:
  2108   001602  0E02               	movlw	2
  2109   001604  1834               	xorwf	display_dashboard@key^0,w,c
  2110   001606  A4D8               	btfss	status,2,c
  2111   001608  EF08  F00B         	goto	u3991
  2112   00160C  EF0A  F00B         	goto	u3990
  2113   001610                     u3991:
  2114   001610  EF15  F00B         	goto	l4398
  2115   001614                     u3990:
  2116   001614  0E06               	movlw	6
  2117   001616  6041               	cpfslt	_event_index^0,c
  2118   001618  EF10  F00B         	goto	u4001
  2119   00161C  EF12  F00B         	goto	u4000
  2120   001620                     u4001:
  2121   001620  EF15  F00B         	goto	l4398
  2122   001624                     u4000:
  2123   001624                     
  2124                           ;dashboard.c: 38:                    event_index++;
  2125   001624  2A41               	incf	_event_index^0,f,c
  2126   001626  EF29  F00B         	goto	l4404
  2127   00162A                     l4398:
  2128   00162A  0E03               	movlw	3
  2129   00162C  1834               	xorwf	display_dashboard@key^0,w,c
  2130   00162E  A4D8               	btfss	status,2,c
  2131   001630  EF1C  F00B         	goto	u4011
  2132   001634  EF1E  F00B         	goto	u4010
  2133   001638                     u4011:
  2134   001638  EF29  F00B         	goto	l695
  2135   00163C                     u4010:
  2136   00163C  0E01               	movlw	1
  2137   00163E  6441               	cpfsgt	_event_index^0,c
  2138   001640  EF24  F00B         	goto	u4021
  2139   001644  EF26  F00B         	goto	u4020
  2140   001648                     u4021:
  2141   001648  EF29  F00B         	goto	l695
  2142   00164C                     u4020:
  2143   00164C                     
  2144                           ;dashboard.c: 40:                    event_index--;
  2145   00164C  0641               	decf	_event_index^0,f,c
  2146   00164E  EF29  F00B         	goto	l4404
  2147   001652                     l695:
  2148   001652                     l4404:
  2149                           
  2150                           ;dashboard.c: 41:             adc_reg_val = read_adc(0x04);
  2151   001652  0E04               	movlw	4
  2152   001654  ECEF  F014         	call	_read_adc
  2153   001658  C001  F032         	movff	?_read_adc,display_dashboard@adc_reg_val
  2154   00165C  C002  F033         	movff	?_read_adc+1,display_dashboard@adc_reg_val+1
  2155   001660                     
  2156                           ;dashboard.c: 42:             speed = ((int)(adc_reg_val/(float)10.23));
  2157   001660  0E14               	movlw	20
  2158   001662  6E13               	movwf	___fldiv@a^0,c
  2159   001664  0EAE               	movlw	174
  2160   001666  6E14               	movwf	(___fldiv@a+1)^0,c
  2161   001668  0E23               	movlw	35
  2162   00166A  6E15               	movwf	(___fldiv@a+2)^0,c
  2163   00166C  0E41               	movlw	65
  2164   00166E  6E16               	movwf	(___fldiv@a+3)^0,c
  2165   001670  C032  F001         	movff	display_dashboard@adc_reg_val,___xxtofl@val
  2166   001674  C033  F002         	movff	display_dashboard@adc_reg_val+1,___xxtofl@val+1
  2167   001678  6A03               	clrf	(___xxtofl@val+2)^0,c
  2168   00167A  6A04               	clrf	(___xxtofl@val+3)^0,c
  2169   00167C  0E00               	movlw	0
  2170   00167E  EC31  F00E         	call	___xxtofl
  2171   001682  C001  F00F         	movff	?___xxtofl,___fldiv@b
  2172   001686  C002  F010         	movff	?___xxtofl+1,___fldiv@b+1
  2173   00168A  C003  F011         	movff	?___xxtofl+2,___fldiv@b+2
  2174   00168E  C004  F012         	movff	?___xxtofl+3,___fldiv@b+3
  2175   001692  EC2F  F007         	call	___fldiv	;wreg free
  2176   001696  C00F  F028         	movff	?___fldiv,___fltol@f1
  2177   00169A  C010  F029         	movff	?___fldiv+1,___fltol@f1+1
  2178   00169E  C011  F02A         	movff	?___fldiv+2,___fltol@f1+2
  2179   0016A2  C012  F02B         	movff	?___fldiv+3,___fltol@f1+3
  2180   0016A6  EC25  F010         	call	___fltol	;wreg free
  2181   0016AA  C028  F0AC         	movff	?___fltol,_speed
  2182   0016AE  C029  F0AD         	movff	?___fltol+1,_speed+1
  2183   0016B2  0100               	movlb	0	; () banked
  2184   0016B4  0E00               	movlw	0
  2185   0016B6  BFAD               	btfsc	(_speed+1)& (0+255),7,b
  2186   0016B8  0EFF               	movlw	-1
  2187   0016BA  6FAE               	movwf	(_speed+2)& (0+255),b
  2188   0016BC  6FAF               	movwf	(_speed+3)& (0+255),b
  2189   0016BE                     
  2190                           ; BSR set to: 0
  2191                           ;dashboard.c: 44:             get_time();
  2192   0016BE  ECBC  F012         	call	_get_time	;wreg free
  2193   0016C2                     
  2194                           ;dashboard.c: 45:             store_eeprom(key,speed);
  2195   0016C2  C0AC  F006         	movff	_speed,store_eeprom@adc_val
  2196   0016C6  C0AD  F007         	movff	_speed+1,store_eeprom@adc_val+1
  2197   0016CA  C0AE  F008         	movff	_speed+2,store_eeprom@adc_val+2
  2198   0016CE  C0AF  F009         	movff	_speed+3,store_eeprom@adc_val+3
  2199   0016D2  5034               	movf	display_dashboard@key^0,w,c
  2200   0016D4  EC0B  F00F         	call	_store_eeprom
  2201   0016D8                     l4412:
  2202                           
  2203                           ;dashboard.c: 49:         psw_mode_flag = 1;
  2204   0016D8  0E01               	movlw	1
  2205   0016DA  6E4D               	movwf	_psw_mode_flag^0,c
  2206   0016DC                     
  2207                           ;dashboard.c: 50:         login_BB(key);
  2208   0016DC  5034               	movf	display_dashboard@key^0,w,c
  2209   0016DE  ECFC  F008         	call	_login_BB
  2210                           
  2211                           ;dashboard.c: 51:     }
  2212   0016E2  EF25  F00C         	goto	l709
  2213   0016E6                     l4416:
  2214                           
  2215                           ;dashboard.c: 55:         clcd_print("  TIME   EV  SP ",(0x80 + (0)));
  2216   0016E6  0E2F               	movlw	low STR_57
  2217   0016E8  6E03               	movwf	clcd_print@data^0,c
  2218   0016EA  0E2E               	movlw	high STR_57
  2219   0016EC  6E04               	movwf	(clcd_print@data+1)^0,c
  2220   0016EE  0E80               	movlw	128
  2221   0016F0  6E05               	movwf	clcd_print@addr^0,c
  2222   0016F2  ECAF  F013         	call	_clcd_print	;wreg free
  2223                           
  2224                           ;dashboard.c: 57:         display_time();
  2225   0016F6  ECE8  F015         	call	_display_time	;wreg free
  2226   0016FA                     
  2227                           ;dashboard.c: 58:         if(key == 1)
  2228   0016FA  0434               	decf	display_dashboard@key^0,w,c
  2229   0016FC  A4D8               	btfss	status,2,c
  2230   0016FE  EF83  F00B         	goto	u4031
  2231   001702  EF85  F00B         	goto	u4030
  2232   001706                     u4031:
  2233   001706  EF89  F00B         	goto	l4422
  2234   00170A                     u4030:
  2235   00170A                     
  2236                           ;dashboard.c: 59:         {;dashboard.c: 60:                event_index = 7;
  2237   00170A  0E07               	movlw	7
  2238   00170C  6E41               	movwf	_event_index^0,c
  2239                           
  2240                           ;dashboard.c: 61:         }
  2241   00170E  EFD0  F00B         	goto	l4442
  2242   001712                     l4422:
  2243   001712  0E07               	movlw	7
  2244   001714  1841               	xorwf	_event_index^0,w,c
  2245   001716  A4D8               	btfss	status,2,c
  2246   001718  EF90  F00B         	goto	u4041
  2247   00171C  EF92  F00B         	goto	u4040
  2248   001720                     u4041:
  2249   001720  EFA8  F00B         	goto	l4430
  2250   001724                     u4040:
  2251   001724  0E02               	movlw	2
  2252   001726  1834               	xorwf	display_dashboard@key^0,w,c
  2253   001728  B4D8               	btfsc	status,2,c
  2254   00172A  EF99  F00B         	goto	u4051
  2255   00172E  EF9B  F00B         	goto	u4050
  2256   001732                     u4051:
  2257   001732  EFA4  F00B         	goto	l4428
  2258   001736                     u4050:
  2259   001736  0E03               	movlw	3
  2260   001738  1834               	xorwf	display_dashboard@key^0,w,c
  2261   00173A  A4D8               	btfss	status,2,c
  2262   00173C  EFA2  F00B         	goto	u4061
  2263   001740  EFA4  F00B         	goto	u4060
  2264   001744                     u4061:
  2265   001744  EFA8  F00B         	goto	l4430
  2266   001748                     u4060:
  2267   001748                     l4428:
  2268                           
  2269                           ;dashboard.c: 63:             event_index = 2;
  2270   001748  0E02               	movlw	2
  2271   00174A  6E41               	movwf	_event_index^0,c
  2272   00174C  EFD0  F00B         	goto	l4442
  2273   001750                     l4430:
  2274   001750  0E02               	movlw	2
  2275   001752  1834               	xorwf	display_dashboard@key^0,w,c
  2276   001754  A4D8               	btfss	status,2,c
  2277   001756  EFAF  F00B         	goto	u4071
  2278   00175A  EFB1  F00B         	goto	u4070
  2279   00175E                     u4071:
  2280   00175E  EFBC  F00B         	goto	l4436
  2281   001762                     u4070:
  2282   001762  0E06               	movlw	6
  2283   001764  6041               	cpfslt	_event_index^0,c
  2284   001766  EFB7  F00B         	goto	u4081
  2285   00176A  EFB9  F00B         	goto	u4080
  2286   00176E                     u4081:
  2287   00176E  EFBC  F00B         	goto	l4436
  2288   001772                     u4080:
  2289   001772                     
  2290                           ;dashboard.c: 65:                event_index++;
  2291   001772  2A41               	incf	_event_index^0,f,c
  2292   001774  EFD0  F00B         	goto	l4442
  2293   001778                     l4436:
  2294   001778  0E03               	movlw	3
  2295   00177A  1834               	xorwf	display_dashboard@key^0,w,c
  2296   00177C  A4D8               	btfss	status,2,c
  2297   00177E  EFC3  F00B         	goto	u4091
  2298   001782  EFC5  F00B         	goto	u4090
  2299   001786                     u4091:
  2300   001786  EFD0  F00B         	goto	l705
  2301   00178A                     u4090:
  2302   00178A  0E01               	movlw	1
  2303   00178C  6441               	cpfsgt	_event_index^0,c
  2304   00178E  EFCB  F00B         	goto	u4101
  2305   001792  EFCD  F00B         	goto	u4100
  2306   001796                     u4101:
  2307   001796  EFD0  F00B         	goto	l705
  2308   00179A                     u4100:
  2309   00179A                     
  2310                           ;dashboard.c: 67:                event_index--;
  2311   00179A  0641               	decf	_event_index^0,f,c
  2312   00179C  EFD0  F00B         	goto	l4442
  2313   0017A0                     l705:
  2314   0017A0                     l4442:
  2315                           
  2316                           ;dashboard.c: 69:         display_event(event[event_index]);
  2317   0017A0  5041               	movf	_event_index^0,w,c
  2318   0017A2  0D02               	mullw	2
  2319   0017A4  0E74               	movlw	low _event
  2320   0017A6  24F3               	addwf	243,w,c
  2321   0017A8  6ED9               	movwf	fsr2l,c
  2322   0017AA  0E00               	movlw	high _event
  2323   0017AC  20F4               	addwfc	prodh,w,c
  2324   0017AE  6EDA               	movwf	fsr2h,c
  2325   0017B0  CFDE F011          	movff	postinc2,display_event@event
  2326   0017B4  CFDD F012          	movff	postdec2,display_event@event+1
  2327   0017B8  ECB4  F015         	call	_display_event	;wreg free
  2328   0017BC                     
  2329                           ;dashboard.c: 73:         adc_reg_val = read_adc(0x04);
  2330   0017BC  0E04               	movlw	4
  2331   0017BE  ECEF  F014         	call	_read_adc
  2332   0017C2  C001  F032         	movff	?_read_adc,display_dashboard@adc_reg_val
  2333   0017C6  C002  F033         	movff	?_read_adc+1,display_dashboard@adc_reg_val+1
  2334   0017CA                     
  2335                           ;dashboard.c: 74:         speed = ((int)(adc_reg_val/(float)10.23));
  2336   0017CA  0E14               	movlw	20
  2337   0017CC  6E13               	movwf	___fldiv@a^0,c
  2338   0017CE  0EAE               	movlw	174
  2339   0017D0  6E14               	movwf	(___fldiv@a+1)^0,c
  2340   0017D2  0E23               	movlw	35
  2341   0017D4  6E15               	movwf	(___fldiv@a+2)^0,c
  2342   0017D6  0E41               	movlw	65
  2343   0017D8  6E16               	movwf	(___fldiv@a+3)^0,c
  2344   0017DA  C032  F001         	movff	display_dashboard@adc_reg_val,___xxtofl@val
  2345   0017DE  C033  F002         	movff	display_dashboard@adc_reg_val+1,___xxtofl@val+1
  2346   0017E2  6A03               	clrf	(___xxtofl@val+2)^0,c
  2347   0017E4  6A04               	clrf	(___xxtofl@val+3)^0,c
  2348   0017E6  0E00               	movlw	0
  2349   0017E8  EC31  F00E         	call	___xxtofl
  2350   0017EC  C001  F00F         	movff	?___xxtofl,___fldiv@b
  2351   0017F0  C002  F010         	movff	?___xxtofl+1,___fldiv@b+1
  2352   0017F4  C003  F011         	movff	?___xxtofl+2,___fldiv@b+2
  2353   0017F8  C004  F012         	movff	?___xxtofl+3,___fldiv@b+3
  2354   0017FC  EC2F  F007         	call	___fldiv	;wreg free
  2355   001800  C00F  F028         	movff	?___fldiv,___fltol@f1
  2356   001804  C010  F029         	movff	?___fldiv+1,___fltol@f1+1
  2357   001808  C011  F02A         	movff	?___fldiv+2,___fltol@f1+2
  2358   00180C  C012  F02B         	movff	?___fldiv+3,___fltol@f1+3
  2359   001810  EC25  F010         	call	___fltol	;wreg free
  2360   001814  C028  F0AC         	movff	?___fltol,_speed
  2361   001818  C029  F0AD         	movff	?___fltol+1,_speed+1
  2362   00181C  0100               	movlb	0	; () banked
  2363   00181E  0E00               	movlw	0
  2364   001820  BFAD               	btfsc	(_speed+1)& (0+255),7,b
  2365   001822  0EFF               	movlw	-1
  2366   001824  6FAE               	movwf	(_speed+2)& (0+255),b
  2367   001826  6FAF               	movwf	(_speed+3)& (0+255),b
  2368   001828                     
  2369                           ; BSR set to: 0
  2370                           ;dashboard.c: 75:         display_speed(speed);
  2371   001828  C0AC  F011         	movff	_speed,display_speed@speed
  2372   00182C  C0AD  F012         	movff	_speed+1,display_speed@speed+1
  2373   001830  ECFE  F012         	call	_display_speed	;wreg free
  2374   001834                     
  2375                           ;dashboard.c: 77:         store_eeprom(key,speed);
  2376   001834  C0AC  F006         	movff	_speed,store_eeprom@adc_val
  2377   001838  C0AD  F007         	movff	_speed+1,store_eeprom@adc_val+1
  2378   00183C  C0AE  F008         	movff	_speed+2,store_eeprom@adc_val+2
  2379   001840  C0AF  F009         	movff	_speed+3,store_eeprom@adc_val+3
  2380   001844  5034               	movf	display_dashboard@key^0,w,c
  2381   001846  EC0B  F00F         	call	_store_eeprom
  2382   00184A                     l709:
  2383   00184A  0012               	return		;funcret
  2384   00184C                     __end_of_display_dashboard:
  2385                           	callstack 0
  2386                           
  2387 ;; *************** function _store_eeprom *****************
  2388 ;; Defined at:
  2389 ;;		line 18 in file "ext_eeprom.c"
  2390 ;; Parameters:    Size  Location     Type
  2391 ;;  key             1    wreg     unsigned char 
  2392 ;;  adc_val         4    5[COMRAM] unsigned long 
  2393 ;; Auto vars:     Size  Location     Type
  2394 ;;  key             1   10[COMRAM] unsigned char 
  2395 ;;  i               2   11[COMRAM] int 
  2396 ;; Return value:  Size  Location     Type
  2397 ;;                  1    wreg      void 
  2398 ;; Registers used:
  2399 ;;		wreg, fsr2l, fsr2h, status,2, status,0, prodl, prodh, cstack
  2400 ;; Tracked objects:
  2401 ;;		On entry : 0/0
  2402 ;;		On exit  : 0/0
  2403 ;;		Unchanged: 0/0
  2404 ;; Data sizes:     COMRAM   BANK0   BANK1   BANK2   BANK3   BANK4   BANK5
  2405 ;;      Params:         4       0       0       0       0       0       0
  2406 ;;      Locals:         3       0       0       0       0       0       0
  2407 ;;      Temps:          1       0       0       0       0       0       0
  2408 ;;      Totals:         8       0       0       0       0       0       0
  2409 ;;Total ram usage:        8 bytes
  2410 ;; Hardware stack levels used: 1
  2411 ;; Hardware stack levels required when called: 5
  2412 ;; This function calls:
  2413 ;;		_read_external_eeprom
  2414 ;;		_write_external_eeprom
  2415 ;; This function is called by:
  2416 ;;		_display_dashboard
  2417 ;; This function uses a non-reentrant model
  2418 ;;
  2419                           
  2420                           	psect	text10
  2421   001E16                     __ptext10:
  2422                           	callstack 0
  2423   001E16                     _store_eeprom:
  2424                           	callstack 24
  2425                           
  2426                           ;incstack = 0
  2427                           ;store_eeprom@key stored from wreg
  2428   001E16  6E0B               	movwf	store_eeprom@key^0,c
  2429   001E18                     
  2430                           ;ext_eeprom.c: 18: void store_eeprom( unsigned char key, unsigned long adc_val );ext_eep
      +                          rom.c: 19: {;ext_eeprom.c: 21:     if( key == 1 || key == 2 || key == 3 )
  2431   001E18  040B               	decf	store_eeprom@key^0,w,c
  2432   001E1A  B4D8               	btfsc	status,2,c
  2433   001E1C  EF12  F00F         	goto	u3401
  2434   001E20  EF14  F00F         	goto	u3400
  2435   001E24                     u3401:
  2436   001E24  EF26  F00F         	goto	l4072
  2437   001E28                     u3400:
  2438   001E28  0E02               	movlw	2
  2439   001E2A  180B               	xorwf	store_eeprom@key^0,w,c
  2440   001E2C  B4D8               	btfsc	status,2,c
  2441   001E2E  EF1B  F00F         	goto	u3411
  2442   001E32  EF1D  F00F         	goto	u3410
  2443   001E36                     u3411:
  2444   001E36  EF26  F00F         	goto	l4072
  2445   001E3A                     u3410:
  2446   001E3A  0E03               	movlw	3
  2447   001E3C  180B               	xorwf	store_eeprom@key^0,w,c
  2448   001E3E  A4D8               	btfss	status,2,c
  2449   001E40  EF24  F00F         	goto	u3421
  2450   001E44  EF26  F00F         	goto	u3420
  2451   001E48                     u3421:
  2452   001E48  EFA0  F00F         	goto	l644
  2453   001E4C                     u3420:
  2454   001E4C                     l4072:
  2455                           
  2456                           ;ext_eeprom.c: 22:     {;ext_eeprom.c: 24:         log_count = read_external_eeprom(0x33
      +                          );
  2457   001E4C  0E33               	movlw	51
  2458   001E4E  EC8A  F015         	call	_read_external_eeprom
  2459   001E52  6E47               	movwf	_log_count^0,c
  2460   001E54                     
  2461                           ;ext_eeprom.c: 26:       if(log_count < 10)
  2462   001E54  0E0A               	movlw	10
  2463   001E56  6047               	cpfslt	_log_count^0,c
  2464   001E58  EF30  F00F         	goto	u3431
  2465   001E5C  EF32  F00F         	goto	u3430
  2466   001E60                     u3431:
  2467   001E60  EF38  F00F         	goto	l4080
  2468   001E64                     u3430:
  2469   001E64                     
  2470                           ;ext_eeprom.c: 27:       {;ext_eeprom.c: 28:           log_count++;
  2471   001E64  2A47               	incf	_log_count^0,f,c
  2472   001E66                     
  2473                           ;ext_eeprom.c: 29:           write_external_eeprom(0x33,log_count);
  2474   001E66  C047  F002         	movff	_log_count,write_external_eeprom@data
  2475   001E6A  0E33               	movlw	51
  2476   001E6C  EC12  F015         	call	_write_external_eeprom
  2477   001E70                     l4080:
  2478                           
  2479                           ;ext_eeprom.c: 31:  if( event_num == 10 )
  2480   001E70  0E0A               	movlw	10
  2481   001E72  1840               	xorwf	_event_num^0,w,c
  2482   001E74  A4D8               	btfss	status,2,c
  2483   001E76  EF3F  F00F         	goto	u3441
  2484   001E7A  EF41  F00F         	goto	u3440
  2485   001E7E                     u3441:
  2486   001E7E  EF47  F00F         	goto	l638
  2487   001E82                     u3440:
  2488   001E82                     
  2489                           ;ext_eeprom.c: 32:  {;ext_eeprom.c: 33:         event_num = 0;
  2490   001E82  0E00               	movlw	0
  2491   001E84  6E40               	movwf	_event_num^0,c
  2492                           
  2493                           ;ext_eeprom.c: 34:      address = 0;
  2494   001E86  0E00               	movlw	0
  2495   001E88  6E3D               	movwf	(_address+1)^0,c
  2496   001E8A  0E00               	movlw	0
  2497   001E8C  6E3C               	movwf	_address^0,c
  2498   001E8E                     l638:
  2499                           
  2500                           ;ext_eeprom.c: 36:  for( int i = 0; i < 8 ; i++ )
  2501   001E8E  0E00               	movlw	0
  2502   001E90  6E0D               	movwf	(store_eeprom@i+1)^0,c
  2503   001E92  0E00               	movlw	0
  2504   001E94  6E0C               	movwf	store_eeprom@i^0,c
  2505   001E96                     l4088:
  2506                           
  2507                           ;ext_eeprom.c: 37:  {;ext_eeprom.c: 38:         if(i == 0 || i == 3 || i == 6)
  2508   001E96  500C               	movf	store_eeprom@i^0,w,c
  2509   001E98  100D               	iorwf	(store_eeprom@i+1)^0,w,c
  2510   001E9A  B4D8               	btfsc	status,2,c
  2511   001E9C  EF52  F00F         	goto	u3451
  2512   001EA0  EF54  F00F         	goto	u3450
  2513   001EA4                     u3451:
  2514   001EA4  EF68  F00F         	goto	l4094
  2515   001EA8                     u3450:
  2516   001EA8  0E03               	movlw	3
  2517   001EAA  180C               	xorwf	store_eeprom@i^0,w,c
  2518   001EAC  100D               	iorwf	(store_eeprom@i+1)^0,w,c
  2519   001EAE  B4D8               	btfsc	status,2,c
  2520   001EB0  EF5C  F00F         	goto	u3461
  2521   001EB4  EF5E  F00F         	goto	u3460
  2522   001EB8                     u3461:
  2523   001EB8  EF68  F00F         	goto	l4094
  2524   001EBC                     u3460:
  2525   001EBC  0E06               	movlw	6
  2526   001EBE  180C               	xorwf	store_eeprom@i^0,w,c
  2527   001EC0  100D               	iorwf	(store_eeprom@i+1)^0,w,c
  2528   001EC2  A4D8               	btfss	status,2,c
  2529   001EC4  EF66  F00F         	goto	u3471
  2530   001EC8  EF68  F00F         	goto	u3470
  2531   001ECC                     u3471:
  2532   001ECC  EF81  F00F         	goto	l4098
  2533   001ED0                     u3470:
  2534   001ED0                     l4094:
  2535                           
  2536                           ;ext_eeprom.c: 39:      write_external_eeprom(address++,(((time[i]-48)*10))+(time[i+1]-4
      +                          8));
  2537   001ED0  0E91               	movlw	low (_time+1)
  2538   001ED2  240C               	addwf	store_eeprom@i^0,w,c
  2539   001ED4  6ED9               	movwf	fsr2l,c
  2540   001ED6  0E00               	movlw	high (_time+1)
  2541   001ED8  200D               	addwfc	(store_eeprom@i+1)^0,w,c
  2542   001EDA  6EDA               	movwf	fsr2h,c
  2543   001EDC  50DF               	movf	indf2,w,c
  2544   001EDE  6E0A               	movwf	??_store_eeprom^0,c
  2545   001EE0  0E90               	movlw	low _time
  2546   001EE2  240C               	addwf	store_eeprom@i^0,w,c
  2547   001EE4  6ED9               	movwf	fsr2l,c
  2548   001EE6  0E00               	movlw	high _time
  2549   001EE8  200D               	addwfc	(store_eeprom@i+1)^0,w,c
  2550   001EEA  6EDA               	movwf	fsr2h,c
  2551   001EEC  50DF               	movf	indf2,w,c
  2552   001EEE  0D0A               	mullw	10
  2553   001EF0  50F3               	movf	243,w,c
  2554   001EF2  240A               	addwf	??_store_eeprom^0,w,c
  2555   001EF4  0FF0               	addlw	240
  2556   001EF6  6E02               	movwf	write_external_eeprom@data^0,c
  2557   001EF8  503C               	movf	_address^0,w,c
  2558   001EFA  EC12  F015         	call	_write_external_eeprom
  2559   001EFE  4A3C               	infsnz	_address^0,f,c
  2560   001F00  2A3D               	incf	(_address+1)^0,f,c
  2561   001F02                     l4098:
  2562                           
  2563                           ;ext_eeprom.c: 40:  }
  2564   001F02  4A0C               	infsnz	store_eeprom@i^0,f,c
  2565   001F04  2A0D               	incf	(store_eeprom@i+1)^0,f,c
  2566   001F06  BE0D               	btfsc	(store_eeprom@i+1)^0,7,c
  2567   001F08  EF8F  F00F         	goto	u3481
  2568   001F0C  500D               	movf	(store_eeprom@i+1)^0,w,c
  2569   001F0E  E109               	bnz	u3480
  2570   001F10  0E08               	movlw	8
  2571   001F12  5C0C               	subwf	store_eeprom@i^0,w,c
  2572   001F14  A0D8               	btfss	status,0,c
  2573   001F16  EF8F  F00F         	goto	u3481
  2574   001F1A  EF91  F00F         	goto	u3480
  2575   001F1E                     u3481:
  2576   001F1E  EF4B  F00F         	goto	l4088
  2577   001F22                     u3480:
  2578   001F22                     
  2579                           ;ext_eeprom.c: 42:   write_external_eeprom(address++,event_index);
  2580   001F22  C041  F002         	movff	_event_index,write_external_eeprom@data
  2581   001F26  503C               	movf	_address^0,w,c
  2582   001F28  EC12  F015         	call	_write_external_eeprom
  2583   001F2C  4A3C               	infsnz	_address^0,f,c
  2584   001F2E  2A3D               	incf	(_address+1)^0,f,c
  2585   001F30                     
  2586                           ;ext_eeprom.c: 44:  write_external_eeprom( address++, adc_val);
  2587   001F30  C006  F002         	movff	store_eeprom@adc_val,write_external_eeprom@data
  2588   001F34  503C               	movf	_address^0,w,c
  2589   001F36  EC12  F015         	call	_write_external_eeprom
  2590   001F3A  4A3C               	infsnz	_address^0,f,c
  2591   001F3C  2A3D               	incf	(_address+1)^0,f,c
  2592                           
  2593                           ;ext_eeprom.c: 45:  event_num++;
  2594   001F3E  2A40               	incf	_event_num^0,f,c
  2595   001F40                     l644:
  2596   001F40  0012               	return		;funcret
  2597   001F42                     __end_of_store_eeprom:
  2598                           	callstack 0
  2599                           
  2600 ;; *************** function _read_adc *****************
  2601 ;; Defined at:
  2602 ;;		line 43 in file "adc.c"
  2603 ;; Parameters:    Size  Location     Type
  2604 ;;  channel         1    wreg     unsigned char 
  2605 ;; Auto vars:     Size  Location     Type
  2606 ;;  channel         1    6[COMRAM] unsigned char 
  2607 ;;  reg_val         2    4[COMRAM] unsigned short 
  2608 ;; Return value:  Size  Location     Type
  2609 ;;                  2    0[COMRAM] unsigned short 
  2610 ;; Registers used:
  2611 ;;		wreg, status,2, status,0
  2612 ;; Tracked objects:
  2613 ;;		On entry : 0/0
  2614 ;;		On exit  : 0/0
  2615 ;;		Unchanged: 0/0
  2616 ;; Data sizes:     COMRAM   BANK0   BANK1   BANK2   BANK3   BANK4   BANK5
  2617 ;;      Params:         2       0       0       0       0       0       0
  2618 ;;      Locals:         3       0       0       0       0       0       0
  2619 ;;      Temps:          2       0       0       0       0       0       0
  2620 ;;      Totals:         7       0       0       0       0       0       0
  2621 ;;Total ram usage:        7 bytes
  2622 ;; Hardware stack levels used: 1
  2623 ;; Hardware stack levels required when called: 1
  2624 ;; This function calls:
  2625 ;;		Nothing
  2626 ;; This function is called by:
  2627 ;;		_display_dashboard
  2628 ;; This function uses a non-reentrant model
  2629 ;;
  2630                           
  2631                           	psect	text11
  2632   0029DE                     __ptext11:
  2633                           	callstack 0
  2634   0029DE                     _read_adc:
  2635                           	callstack 28
  2636                           
  2637                           ;incstack = 0
  2638                           ;read_adc@channel stored from wreg
  2639   0029DE  6E07               	movwf	read_adc@channel^0,c
  2640   0029E0                     
  2641                           ;adc.c: 43: unsigned short read_adc(unsigned char channel);adc.c: 44: {;adc.c: 45:  unsi
      +                          gned short reg_val;;adc.c: 48:  ADCON0 = (ADCON0 & 0xC3) | (channel << 2);
  2642   0029E0  C007  F003         	movff	read_adc@channel,??_read_adc
  2643   0029E4  90D8               	bcf	status,0,c
  2644   0029E6  3603               	rlcf	??_read_adc^0,f,c
  2645   0029E8  90D8               	bcf	status,0,c
  2646   0029EA  3603               	rlcf	??_read_adc^0,f,c
  2647   0029EC  50C2               	movf	194,w,c	;volatile
  2648   0029EE  0BC3               	andlw	195
  2649   0029F0  1003               	iorwf	??_read_adc^0,w,c
  2650   0029F2  6EC2               	movwf	194,c	;volatile
  2651   0029F4                     
  2652                           ;adc.c: 51:  GO = 1;
  2653   0029F4  82C2               	bsf	4034,1,c	;volatile
  2654   0029F6                     l201:
  2655   0029F6  B2C2               	btfsc	4034,1,c	;volatile
  2656   0029F8  EF00  F015         	goto	u3271
  2657   0029FC  EF02  F015         	goto	u3270
  2658   002A00                     u3271:
  2659   002A00  EFFB  F014         	goto	l201
  2660   002A04                     u3270:
  2661   002A04                     
  2662                           ;adc.c: 53:  reg_val = (ADRESH << 8) | ADRESL;
  2663   002A04  50C3               	movf	195,w,c	;volatile
  2664   002A06  CFC4 F003          	movff	4036,??_read_adc	;volatile
  2665   002A0A  6A04               	clrf	(??_read_adc+1)^0,c
  2666   002A0C  C003  F004         	movff	??_read_adc,??_read_adc+1
  2667   002A10  6A03               	clrf	??_read_adc^0,c
  2668   002A12  1003               	iorwf	??_read_adc^0,w,c
  2669   002A14  6E05               	movwf	read_adc@reg_val^0,c
  2670   002A16  5004               	movf	(??_read_adc+1)^0,w,c
  2671   002A18  6E06               	movwf	(read_adc@reg_val+1)^0,c
  2672   002A1A                     
  2673                           ;adc.c: 55:  return reg_val;
  2674   002A1A  C005  F001         	movff	read_adc@reg_val,?_read_adc
  2675   002A1E  C006  F002         	movff	read_adc@reg_val+1,?_read_adc+1
  2676   002A22  0012               	return		;funcret
  2677   002A24                     __end_of_read_adc:
  2678                           	callstack 0
  2679                           
  2680 ;; *************** function _login_BB *****************
  2681 ;; Defined at:
  2682 ;;		line 21 in file "login.c"
  2683 ;; Parameters:    Size  Location     Type
  2684 ;;  key             1    wreg     unsigned char 
  2685 ;; Auto vars:     Size  Location     Type
  2686 ;;  key             1   42[COMRAM] unsigned char 
  2687 ;; Return value:  Size  Location     Type
  2688 ;;                  1    wreg      unsigned char 
  2689 ;; Registers used:
  2690 ;;		wreg, fsr0l, fsr0h, fsr1l, fsr1h, fsr2l, fsr2h, status,2, status,0, tblptrl, tblptrh, tblptru, prodl, prodh, cstack
  2691 ;; Tracked objects:
  2692 ;;		On entry : 0/0
  2693 ;;		On exit  : 0/0
  2694 ;;		Unchanged: 0/0
  2695 ;; Data sizes:     COMRAM   BANK0   BANK1   BANK2   BANK3   BANK4   BANK5
  2696 ;;      Params:         0       0       0       0       0       0       0
  2697 ;;      Locals:         1       0       0       0       0       0       0
  2698 ;;      Temps:          0       0       0       0       0       0       0
  2699 ;;      Totals:         1       0       0       0       0       0       0
  2700 ;;Total ram usage:        1 bytes
  2701 ;; Hardware stack levels used: 1
  2702 ;; Hardware stack levels required when called: 8
  2703 ;; This function calls:
  2704 ;;		___awdiv
  2705 ;;		___awmod
  2706 ;;		_clcd_print
  2707 ;;		_clcd_putch
  2708 ;;		_display_menu
  2709 ;;		_read_password
  2710 ;;		_strcmp
  2711 ;;		_strcpy
  2712 ;; This function is called by:
  2713 ;;		_display_dashboard
  2714 ;; This function uses a non-reentrant model
  2715 ;;
  2716                           
  2717                           	psect	text12
  2718   0011F8                     __ptext12:
  2719                           	callstack 0
  2720   0011F8                     _login_BB:
  2721                           	callstack 21
  2722                           
  2723                           ;incstack = 0
  2724                           ;login_BB@key stored from wreg
  2725   0011F8  6E2B               	movwf	login_BB@key^0,c
  2726   0011FA                     
  2727                           ;login.c: 26:     if(psw_index == 4)
  2728   0011FA  0E04               	movlw	4
  2729   0011FC  183E               	xorwf	_psw_index^0,w,c
  2730   0011FE  103F               	iorwf	(_psw_index+1)^0,w,c
  2731   001200  A4D8               	btfss	status,2,c
  2732   001202  EF05  F009         	goto	u3281
  2733   001206  EF07  F009         	goto	u3280
  2734   00120A                     u3281:
  2735   00120A  EF18  F00A         	goto	l251
  2736   00120E                     u3280:
  2737   00120E                     
  2738                           ;login.c: 27:     {;login.c: 29:         if(login_success==0)
  2739   00120E  504C               	movf	_login_success^0,w,c
  2740   001210  A4D8               	btfss	status,2,c
  2741   001212  EF0D  F009         	goto	u3291
  2742   001216  EF0F  F009         	goto	u3290
  2743   00121A                     u3291:
  2744   00121A  EF15  F009         	goto	l3964
  2745   00121E                     u3290:
  2746   00121E                     
  2747                           ;login.c: 30:         read_password(psw_arr);
  2748   00121E  0ED3               	movlw	low _psw_arr
  2749   001220  6E04               	movwf	read_password@psw_arr^0,c
  2750   001222  0E00               	movlw	high _psw_arr
  2751   001224  6E05               	movwf	(read_password@psw_arr+1)^0,c
  2752   001226  EC18  F014         	call	_read_password	;wreg free
  2753   00122A                     l3964:
  2754                           
  2755                           ;login.c: 33:         if(login_success == 1 || strcmp(psw_arr,psw_temp) == 0)
  2756   00122A  044C               	decf	_login_success^0,w,c
  2757   00122C  B4D8               	btfsc	status,2,c
  2758   00122E  EF1B  F009         	goto	u3301
  2759   001232  EF1D  F009         	goto	u3300
  2760   001236                     u3301:
  2761   001236  EF30  F009         	goto	l3968
  2762   00123A                     u3300:
  2763   00123A  0ED3               	movlw	low _psw_arr
  2764   00123C  6E01               	movwf	strcmp@l^0,c
  2765   00123E  0E00               	movlw	high _psw_arr
  2766   001240  6E02               	movwf	(strcmp@l+1)^0,c
  2767   001242  0ECE               	movlw	low _psw_temp
  2768   001244  6E03               	movwf	strcmp@r^0,c
  2769   001246  0E00               	movlw	high _psw_temp
  2770   001248  6E04               	movwf	(strcmp@r+1)^0,c
  2771   00124A  EC79  F013         	call	_strcmp	;wreg free
  2772   00124E  5001               	movf	?_strcmp^0,w,c
  2773   001250  1002               	iorwf	(?_strcmp+1)^0,w,c
  2774   001252  A4D8               	btfss	status,2,c
  2775   001254  EF2E  F009         	goto	u3311
  2776   001258  EF30  F009         	goto	u3310
  2777   00125C                     u3311:
  2778   00125C  EF49  F009         	goto	l3976
  2779   001260                     u3310:
  2780   001260                     l3968:
  2781                           
  2782                           ;login.c: 34:         {;login.c: 35:             if(login_success==0)
  2783   001260  504C               	movf	_login_success^0,w,c
  2784   001262  A4D8               	btfss	status,2,c
  2785   001264  EF36  F009         	goto	u3321
  2786   001268  EF38  F009         	goto	u3320
  2787   00126C                     u3321:
  2788   00126C  EF44  F009         	goto	l3974
  2789   001270                     u3320:
  2790   001270                     
  2791                           ;login.c: 36:             {;login.c: 37:                 strcpy(psw_star,"    ");
  2792   001270  0EA6               	movlw	low _psw_star
  2793   001272  6E01               	movwf	strcpy@dest^0,c
  2794   001274  0E00               	movlw	high _psw_star
  2795   001276  6E02               	movwf	(strcpy@dest+1)^0,c
  2796   001278  0EC6               	movlw	low (STR_10+8)
  2797   00127A  6E03               	movwf	strcpy@src^0,c
  2798   00127C  0E2F               	movlw	high (STR_10+8)
  2799   00127E  6E04               	movwf	(strcpy@src+1)^0,c
  2800   001280  EC32  F015         	call	_strcpy	;wreg free
  2801   001284                     
  2802                           ;login.c: 38:                 login_success = 1;
  2803   001284  0E01               	movlw	1
  2804   001286  6E4C               	movwf	_login_success^0,c
  2805   001288                     l3974:
  2806                           
  2807                           ;login.c: 41:             display_menu(key);
  2808   001288  502B               	movf	login_BB@key^0,w,c
  2809   00128A  EC4A  F005         	call	_display_menu
  2810                           
  2811                           ;login.c: 43:         }
  2812   00128E  EFA9  F00A         	goto	l272
  2813   001292                     l3976:
  2814                           
  2815                           ;login.c: 46:         {;login.c: 47:             psw_index=0;
  2816   001292  0E00               	movlw	0
  2817   001294  6E3F               	movwf	(_psw_index+1)^0,c
  2818   001296  0E00               	movlw	0
  2819   001298  6E3E               	movwf	_psw_index^0,c
  2820   00129A                     
  2821                           ;login.c: 48:             strcpy(psw_star,"    ");
  2822   00129A  0EA6               	movlw	low _psw_star
  2823   00129C  6E01               	movwf	strcpy@dest^0,c
  2824   00129E  0E00               	movlw	high _psw_star
  2825   0012A0  6E02               	movwf	(strcpy@dest+1)^0,c
  2826   0012A2  0EC6               	movlw	low (STR_10+8)
  2827   0012A4  6E03               	movwf	strcpy@src^0,c
  2828   0012A6  0E2F               	movlw	high (STR_10+8)
  2829   0012A8  6E04               	movwf	(strcpy@src+1)^0,c
  2830   0012AA  EC32  F015         	call	_strcpy	;wreg free
  2831   0012AE                     
  2832                           ;login.c: 49:             if(attempt > 1)
  2833   0012AE  BE54               	btfsc	(_attempt+1)^0,7,c
  2834   0012B0  EF63  F009         	goto	u3331
  2835   0012B4  5054               	movf	(_attempt+1)^0,w,c
  2836   0012B6  E109               	bnz	u3330
  2837   0012B8  0E02               	movlw	2
  2838   0012BA  5C53               	subwf	_attempt^0,w,c
  2839   0012BC  A0D8               	btfss	status,0,c
  2840   0012BE  EF63  F009         	goto	u3331
  2841   0012C2  EF65  F009         	goto	u3330
  2842   0012C6                     u3331:
  2843   0012C6  EF9B  F009         	goto	l3996
  2844   0012CA                     u3330:
  2845   0012CA                     
  2846                           ;login.c: 50:             {;login.c: 52:                 attempt--;
  2847   0012CA  0653               	decf	_attempt^0,f,c
  2848   0012CC  A0D8               	btfss	status,0,c
  2849   0012CE  0654               	decf	(_attempt+1)^0,f,c
  2850   0012D0                     
  2851                           ;login.c: 53:                 clcd_print("ATTEMPT FAILED  ",(0x80 + (0)));
  2852   0012D0  0E0C               	movlw	low STR_3
  2853   0012D2  6E03               	movwf	clcd_print@data^0,c
  2854   0012D4  0E2F               	movlw	high STR_3
  2855   0012D6  6E04               	movwf	(clcd_print@data+1)^0,c
  2856   0012D8  0E80               	movlw	128
  2857   0012DA  6E05               	movwf	clcd_print@addr^0,c
  2858   0012DC  ECAF  F013         	call	_clcd_print	;wreg free
  2859   0012E0                     
  2860                           ;login.c: 54:                 clcd_print("ATTEMPT LEFT - ",(0xC0 + (0)));
  2861   0012E0  0E9F               	movlw	low STR_4
  2862   0012E2  6E03               	movwf	clcd_print@data^0,c
  2863   0012E4  0E2F               	movlw	high STR_4
  2864   0012E6  6E04               	movwf	(clcd_print@data+1)^0,c
  2865   0012E8  0EC0               	movlw	192
  2866   0012EA  6E05               	movwf	clcd_print@addr^0,c
  2867   0012EC  ECAF  F013         	call	_clcd_print	;wreg free
  2868   0012F0                     
  2869                           ;login.c: 55:                 clcd_putch((attempt+48),(0xC0 + (15)));
  2870   0012F0  0ECF               	movlw	207
  2871   0012F2  6E0F               	movwf	clcd_putch@addr^0,c
  2872   0012F4  5053               	movf	_attempt^0,w,c
  2873   0012F6  0F30               	addlw	48
  2874   0012F8  EC13  F016         	call	_clcd_putch
  2875   0012FC                     
  2876                           ;login.c: 56:                 TMR0IE = 1;
  2877   0012FC  8AF2               	bsf	4082,5,c	;volatile
  2878   0012FE                     l3992:
  2879   0012FE  504F               	movf	_flag_30_sec^0,w,c
  2880   001300  B4D8               	btfsc	status,2,c
  2881   001302  EF85  F009         	goto	u3341
  2882   001306  EF87  F009         	goto	u3340
  2883   00130A                     u3341:
  2884   00130A  EF7F  F009         	goto	l3992
  2885   00130E                     u3340:
  2886   00130E                     
  2887                           ;login.c: 59:                 TMR0IE = 0;
  2888   00130E  9AF2               	bcf	4082,5,c	;volatile
  2889   001310                     
  2890                           ;login.c: 60:                 TMR0=6;
  2891   001310  0E00               	movlw	0
  2892   001312  6ED7               	movwf	215,c	;volatile
  2893   001314  0E06               	movlw	6
  2894   001316  6ED6               	movwf	214,c	;volatile
  2895                           
  2896                           ;login.c: 61:                 flag_5_sec = 0;
  2897   001318  0E00               	movlw	0
  2898   00131A  6E50               	movwf	_flag_5_sec^0,c
  2899                           
  2900                           ;login.c: 62:                 flag_30_sec = 0;
  2901   00131C  0E00               	movlw	0
  2902   00131E  6E4F               	movwf	_flag_30_sec^0,c
  2903                           
  2904                           ;login.c: 63:                 count = 0;
  2905   001320  0E00               	movlw	0
  2906   001322  0100               	movlb	0	; () banked
  2907   001324  6FB4               	movwf	_count& (0+255),b
  2908   001326  0E00               	movlw	0
  2909   001328  6FB5               	movwf	(_count+1)& (0+255),b
  2910   00132A  0E00               	movlw	0
  2911   00132C  6FB6               	movwf	(_count+2)& (0+255),b
  2912   00132E  0E00               	movlw	0
  2913   001330  6FB7               	movwf	(_count+3)& (0+255),b
  2914                           
  2915                           ;login.c: 65:             }
  2916   001332  EFA9  F00A         	goto	l272
  2917   001336                     l3996:
  2918                           
  2919                           ;login.c: 67:             {;login.c: 68:                 min_2 = 120;
  2920   001336  0E78               	movlw	120
  2921   001338  6E57               	movwf	_min_2^0,c
  2922   00133A                     
  2923                           ;login.c: 69:                 clcd_print("YOU ARE BLOCKED ",(0x80 + (0)));
  2924   00133A  0E1D               	movlw	low STR_5
  2925   00133C  6E03               	movwf	clcd_print@data^0,c
  2926   00133E  0E2F               	movlw	high STR_5
  2927   001340  6E04               	movwf	(clcd_print@data+1)^0,c
  2928   001342  0E80               	movlw	128
  2929   001344  6E05               	movwf	clcd_print@addr^0,c
  2930   001346  ECAF  F013         	call	_clcd_print	;wreg free
  2931   00134A                     
  2932                           ;login.c: 70:                 clcd_print("WAIT FOR ",(0xC0 + (0)));
  2933   00134A  0ED5               	movlw	low STR_6
  2934   00134C  6E03               	movwf	clcd_print@data^0,c
  2935   00134E  0E2F               	movlw	high STR_6
  2936   001350  6E04               	movwf	(clcd_print@data+1)^0,c
  2937   001352  0EC0               	movlw	192
  2938   001354  6E05               	movwf	clcd_print@addr^0,c
  2939   001356  ECAF  F013         	call	_clcd_print	;wreg free
  2940   00135A                     
  2941                           ;login.c: 71:                 clcd_print(" SEC",(0xC0 + (12)));
  2942   00135A  0EDF               	movlw	low STR_7
  2943   00135C  6E03               	movwf	clcd_print@data^0,c
  2944   00135E  0E2F               	movlw	high STR_7
  2945   001360  6E04               	movwf	(clcd_print@data+1)^0,c
  2946   001362  0ECC               	movlw	204
  2947   001364  6E05               	movwf	clcd_print@addr^0,c
  2948   001366  ECAF  F013         	call	_clcd_print	;wreg free
  2949   00136A                     
  2950                           ;login.c: 74:                 TMR0IE = 1;
  2951   00136A  8AF2               	bsf	4082,5,c	;volatile
  2952                           
  2953                           ;login.c: 75:                 while(!flag_2_min)
  2954   00136C  EFFA  F009         	goto	l4018
  2955   001370                     l4006:
  2956                           
  2957                           ;login.c: 76:                 {;login.c: 77:                     if(flag_1_sec == 1)
  2958   001370  0458               	decf	_flag_1_sec^0,w,c
  2959   001372  A4D8               	btfss	status,2,c
  2960   001374  EFBE  F009         	goto	u3351
  2961   001378  EFC0  F009         	goto	u3350
  2962   00137C                     u3351:
  2963   00137C  EFFA  F009         	goto	l4018
  2964   001380                     u3350:
  2965   001380                     
  2966                           ;login.c: 78:                     {;login.c: 79:                         flag_1_sec = 0;
  2967   001380  0E00               	movlw	0
  2968   001382  6E58               	movwf	_flag_1_sec^0,c
  2969   001384                     
  2970                           ;login.c: 80:                     clcd_putch(((min_2/100)+48),(0xC0 + (9)));
  2971   001384  0EC9               	movlw	201
  2972   001386  6E0F               	movwf	clcd_putch@addr^0,c
  2973   001388  C057  F007         	movff	_min_2,___awdiv@dividend
  2974   00138C  6A08               	clrf	(___awdiv@dividend+1)^0,c
  2975   00138E  0E00               	movlw	0
  2976   001390  6E0A               	movwf	(___awdiv@divisor+1)^0,c
  2977   001392  0E64               	movlw	100
  2978   001394  6E09               	movwf	___awdiv@divisor^0,c
  2979   001396  EC79  F011         	call	___awdiv	;wreg free
  2980   00139A  5007               	movf	?___awdiv^0,w,c
  2981   00139C  0F30               	addlw	48
  2982   00139E  EC13  F016         	call	_clcd_putch
  2983   0013A2                     
  2984                           ;login.c: 81:                     clcd_putch((((min_2%100)/10)+48),(0xC0 + (10)));
  2985   0013A2  0ECA               	movlw	202
  2986   0013A4  6E0F               	movwf	clcd_putch@addr^0,c
  2987   0013A6  0E00               	movlw	0
  2988   0013A8  6E04               	movwf	(___awmod@divisor+1)^0,c
  2989   0013AA  0E64               	movlw	100
  2990   0013AC  6E03               	movwf	___awmod@divisor^0,c
  2991   0013AE  C057  F001         	movff	_min_2,___awmod@dividend
  2992   0013B2  6A02               	clrf	(___awmod@dividend+1)^0,c
  2993   0013B4  ECDB  F011         	call	___awmod	;wreg free
  2994   0013B8  C001  F007         	movff	?___awmod,___awdiv@dividend
  2995   0013BC  C002  F008         	movff	?___awmod+1,___awdiv@dividend+1
  2996   0013C0  0E00               	movlw	0
  2997   0013C2  6E0A               	movwf	(___awdiv@divisor+1)^0,c
  2998   0013C4  0E0A               	movlw	10
  2999   0013C6  6E09               	movwf	___awdiv@divisor^0,c
  3000   0013C8  EC79  F011         	call	___awdiv	;wreg free
  3001   0013CC  5007               	movf	?___awdiv^0,w,c
  3002   0013CE  0F30               	addlw	48
  3003   0013D0  EC13  F016         	call	_clcd_putch
  3004   0013D4                     
  3005                           ;login.c: 82:                     clcd_putch(((min_2%10)+48),(0xC0 + (11)));
  3006   0013D4  0ECB               	movlw	203
  3007   0013D6  6E0F               	movwf	clcd_putch@addr^0,c
  3008   0013D8  C057  F001         	movff	_min_2,___awmod@dividend
  3009   0013DC  6A02               	clrf	(___awmod@dividend+1)^0,c
  3010   0013DE  0E00               	movlw	0
  3011   0013E0  6E04               	movwf	(___awmod@divisor+1)^0,c
  3012   0013E2  0E0A               	movlw	10
  3013   0013E4  6E03               	movwf	___awmod@divisor^0,c
  3014   0013E6  ECDB  F011         	call	___awmod	;wreg free
  3015   0013EA  5001               	movf	?___awmod^0,w,c
  3016   0013EC  0F30               	addlw	48
  3017   0013EE  EC13  F016         	call	_clcd_putch
  3018   0013F2                     
  3019                           ;login.c: 83:                     min_2--;
  3020   0013F2  0657               	decf	_min_2^0,f,c
  3021   0013F4                     l4018:
  3022                           
  3023                           ;login.c: 75:                 while(!flag_2_min)
  3024   0013F4  504E               	movf	_flag_2_min^0,w,c
  3025   0013F6  B4D8               	btfsc	status,2,c
  3026   0013F8  EF00  F00A         	goto	u3361
  3027   0013FC  EF02  F00A         	goto	u3360
  3028   001400                     u3361:
  3029   001400  EFB8  F009         	goto	l4006
  3030   001404                     u3360:
  3031   001404                     
  3032                           ;login.c: 86:                 TMR0IE = 0;
  3033   001404  9AF2               	bcf	4082,5,c	;volatile
  3034   001406                     
  3035                           ;login.c: 87:                 TMR0=6;
  3036   001406  0E00               	movlw	0
  3037   001408  6ED7               	movwf	215,c	;volatile
  3038   00140A  0E06               	movlw	6
  3039   00140C  6ED6               	movwf	214,c	;volatile
  3040                           
  3041                           ;login.c: 88:                 flag_5_sec=0;
  3042   00140E  0E00               	movlw	0
  3043   001410  6E50               	movwf	_flag_5_sec^0,c
  3044                           
  3045                           ;login.c: 89:                 flag_2_min = 0;
  3046   001412  0E00               	movlw	0
  3047   001414  6E4E               	movwf	_flag_2_min^0,c
  3048                           
  3049                           ;login.c: 90:                 flag_30_sec=0;
  3050   001416  0E00               	movlw	0
  3051   001418  6E4F               	movwf	_flag_30_sec^0,c
  3052                           
  3053                           ;login.c: 92:                 count = 0;
  3054   00141A  0E00               	movlw	0
  3055   00141C  0100               	movlb	0	; () banked
  3056   00141E  6FB4               	movwf	_count& (0+255),b
  3057   001420  0E00               	movlw	0
  3058   001422  6FB5               	movwf	(_count+1)& (0+255),b
  3059   001424  0E00               	movlw	0
  3060   001426  6FB6               	movwf	(_count+2)& (0+255),b
  3061   001428  0E00               	movlw	0
  3062   00142A  6FB7               	movwf	(_count+3)& (0+255),b
  3063   00142C  EFA9  F00A         	goto	l272
  3064   001430                     l251:
  3065                           
  3066                           ;login.c: 101:     {;login.c: 103:         TMR0IE = 1;
  3067   001430  8AF2               	bsf	4082,5,c	;volatile
  3068   001432                     
  3069                           ;login.c: 105:         if(flag_5_sec)
  3070   001432  5050               	movf	_flag_5_sec^0,w,c
  3071   001434  B4D8               	btfsc	status,2,c
  3072   001436  EF1F  F00A         	goto	u3371
  3073   00143A  EF21  F00A         	goto	u3370
  3074   00143E                     u3371:
  3075   00143E  EF41  F00A         	goto	l4030
  3076   001442                     u3370:
  3077   001442                     
  3078                           ;login.c: 106:         {;login.c: 107:             TMR0IE = 0;
  3079   001442  9AF2               	bcf	4082,5,c	;volatile
  3080   001444                     
  3081                           ;login.c: 108:             TMR0=6;
  3082   001444  0E00               	movlw	0
  3083   001446  6ED7               	movwf	215,c	;volatile
  3084   001448  0E06               	movlw	6
  3085   00144A  6ED6               	movwf	214,c	;volatile
  3086                           
  3087                           ;login.c: 109:             count = 0;
  3088   00144C  0E00               	movlw	0
  3089   00144E  0100               	movlb	0	; () banked
  3090   001450  6FB4               	movwf	_count& (0+255),b
  3091   001452  0E00               	movlw	0
  3092   001454  6FB5               	movwf	(_count+1)& (0+255),b
  3093   001456  0E00               	movlw	0
  3094   001458  6FB6               	movwf	(_count+2)& (0+255),b
  3095   00145A  0E00               	movlw	0
  3096   00145C  6FB7               	movwf	(_count+3)& (0+255),b
  3097                           
  3098                           ;login.c: 110:             flag_5_sec = 0;
  3099   00145E  0E00               	movlw	0
  3100   001460  6E50               	movwf	_flag_5_sec^0,c
  3101                           
  3102                           ;login.c: 111:             psw_mode_flag = 0;
  3103   001462  0E00               	movlw	0
  3104   001464  6E4D               	movwf	_psw_mode_flag^0,c
  3105                           
  3106                           ;login.c: 112:             psw_index=0;
  3107   001466  0E00               	movlw	0
  3108   001468  6E3F               	movwf	(_psw_index+1)^0,c
  3109   00146A  0E00               	movlw	0
  3110   00146C  6E3E               	movwf	_psw_index^0,c
  3111   00146E                     
  3112                           ; BSR set to: 0
  3113                           ;login.c: 113:             strcpy(psw_star,"    ");
  3114   00146E  0EA6               	movlw	low _psw_star
  3115   001470  6E01               	movwf	strcpy@dest^0,c
  3116   001472  0E00               	movlw	high _psw_star
  3117   001474  6E02               	movwf	(strcpy@dest+1)^0,c
  3118   001476  0EC6               	movlw	low (STR_10+8)
  3119   001478  6E03               	movwf	strcpy@src^0,c
  3120   00147A  0E2F               	movlw	high (STR_10+8)
  3121   00147C  6E04               	movwf	(strcpy@src+1)^0,c
  3122   00147E  EC32  F015         	call	_strcpy	;wreg free
  3123   001482                     l4030:
  3124                           
  3125                           ;login.c: 116:         if(key == 5)
  3126   001482  0E05               	movlw	5
  3127   001484  182B               	xorwf	login_BB@key^0,w,c
  3128   001486  A4D8               	btfss	status,2,c
  3129   001488  EF48  F00A         	goto	u3381
  3130   00148C  EF4A  F00A         	goto	u3380
  3131   001490                     u3381:
  3132   001490  EF75  F00A         	goto	l4044
  3133   001494                     u3380:
  3134   001494                     
  3135                           ;login.c: 117:         {;login.c: 118:             count = 0;
  3136   001494  0E00               	movlw	0
  3137   001496  0100               	movlb	0	; () banked
  3138   001498  6FB4               	movwf	_count& (0+255),b
  3139   00149A  0E00               	movlw	0
  3140   00149C  6FB5               	movwf	(_count+1)& (0+255),b
  3141   00149E  0E00               	movlw	0
  3142   0014A0  6FB6               	movwf	(_count+2)& (0+255),b
  3143   0014A2  0E00               	movlw	0
  3144   0014A4  6FB7               	movwf	(_count+3)& (0+255),b
  3145   0014A6                     
  3146                           ; BSR set to: 0
  3147                           ;login.c: 119:             psw_temp[psw_index] = '0';
  3148   0014A6  0ECE               	movlw	low _psw_temp
  3149   0014A8  243E               	addwf	_psw_index^0,w,c
  3150   0014AA  6ED9               	movwf	fsr2l,c
  3151   0014AC  0E00               	movlw	high _psw_temp
  3152   0014AE  203F               	addwfc	(_psw_index+1)^0,w,c
  3153   0014B0  6EDA               	movwf	fsr2h,c
  3154   0014B2  0E30               	movlw	48
  3155   0014B4  6EDF               	movwf	indf2,c
  3156   0014B6                     l4036:
  3157                           
  3158                           ; BSR set to: 0
  3159                           ;login.c: 120:             psw_temp[psw_index+1] = '\0';
  3160   0014B6  0ECF               	movlw	low (_psw_temp+1)
  3161   0014B8  243E               	addwf	_psw_index^0,w,c
  3162   0014BA  6ED9               	movwf	fsr2l,c
  3163   0014BC  0E00               	movlw	high (_psw_temp+1)
  3164   0014BE  203F               	addwfc	(_psw_index+1)^0,w,c
  3165   0014C0  6EDA               	movwf	fsr2h,c
  3166   0014C2  6ADF               	clrf	indf2,c
  3167   0014C4                     
  3168                           ; BSR set to: 0
  3169                           ;login.c: 121:             psw_star[psw_index] = '*';
  3170   0014C4  0EA6               	movlw	low _psw_star
  3171   0014C6  243E               	addwf	_psw_index^0,w,c
  3172   0014C8  6ED9               	movwf	fsr2l,c
  3173   0014CA  0E00               	movlw	high _psw_star
  3174   0014CC  203F               	addwfc	(_psw_index+1)^0,w,c
  3175   0014CE  6EDA               	movwf	fsr2h,c
  3176   0014D0  0E2A               	movlw	42
  3177   0014D2  6EDF               	movwf	indf2,c
  3178   0014D4                     
  3179                           ; BSR set to: 0
  3180                           ;login.c: 122:             psw_star[psw_index+1] = '\0';
  3181   0014D4  0EA7               	movlw	low (_psw_star+1)
  3182   0014D6  243E               	addwf	_psw_index^0,w,c
  3183   0014D8  6ED9               	movwf	fsr2l,c
  3184   0014DA  0E00               	movlw	high (_psw_star+1)
  3185   0014DC  203F               	addwfc	(_psw_index+1)^0,w,c
  3186   0014DE  6EDA               	movwf	fsr2h,c
  3187   0014E0  6ADF               	clrf	indf2,c
  3188   0014E2                     
  3189                           ; BSR set to: 0
  3190                           ;login.c: 123:             psw_index++;
  3191   0014E2  4A3E               	infsnz	_psw_index^0,f,c
  3192   0014E4  2A3F               	incf	(_psw_index+1)^0,f,c
  3193                           
  3194                           ;login.c: 124:         }
  3195   0014E6  EF91  F00A         	goto	l4058
  3196   0014EA                     l4044:
  3197   0014EA  0E06               	movlw	6
  3198   0014EC  182B               	xorwf	login_BB@key^0,w,c
  3199   0014EE  A4D8               	btfss	status,2,c
  3200   0014F0  EF7C  F00A         	goto	u3391
  3201   0014F4  EF7E  F00A         	goto	u3390
  3202   0014F8                     u3391:
  3203   0014F8  EF91  F00A         	goto	l4058
  3204   0014FC                     u3390:
  3205   0014FC                     
  3206                           ;login.c: 127:         {;login.c: 128:             count = 0;
  3207   0014FC  0E00               	movlw	0
  3208   0014FE  0100               	movlb	0	; () banked
  3209   001500  6FB4               	movwf	_count& (0+255),b
  3210   001502  0E00               	movlw	0
  3211   001504  6FB5               	movwf	(_count+1)& (0+255),b
  3212   001506  0E00               	movlw	0
  3213   001508  6FB6               	movwf	(_count+2)& (0+255),b
  3214   00150A  0E00               	movlw	0
  3215   00150C  6FB7               	movwf	(_count+3)& (0+255),b
  3216   00150E                     
  3217                           ; BSR set to: 0
  3218                           ;login.c: 129:             psw_temp[psw_index] = '1';
  3219   00150E  0ECE               	movlw	low _psw_temp
  3220   001510  243E               	addwf	_psw_index^0,w,c
  3221   001512  6ED9               	movwf	fsr2l,c
  3222   001514  0E00               	movlw	high _psw_temp
  3223   001516  203F               	addwfc	(_psw_index+1)^0,w,c
  3224   001518  6EDA               	movwf	fsr2h,c
  3225   00151A  0E31               	movlw	49
  3226   00151C  6EDF               	movwf	indf2,c
  3227   00151E  EF5B  F00A         	goto	l4036
  3228   001522                     l4058:
  3229                           
  3230                           ;login.c: 136:         clcd_print(" ENTER PASSWORD ",(0x80 + (0)));
  3231   001522  0E2E               	movlw	low STR_9
  3232   001524  6E03               	movwf	clcd_print@data^0,c
  3233   001526  0E2F               	movlw	high STR_9
  3234   001528  6E04               	movwf	(clcd_print@data+1)^0,c
  3235   00152A  0E80               	movlw	128
  3236   00152C  6E05               	movwf	clcd_print@addr^0,c
  3237   00152E  ECAF  F013         	call	_clcd_print	;wreg free
  3238   001532                     
  3239                           ;login.c: 137:         clcd_print(psw_star,(0xC0 + (0)));
  3240   001532  0EA6               	movlw	low _psw_star
  3241   001534  6E03               	movwf	clcd_print@data^0,c
  3242   001536  0E00               	movlw	high _psw_star
  3243   001538  6E04               	movwf	(clcd_print@data+1)^0,c
  3244   00153A  0EC0               	movlw	192
  3245   00153C  6E05               	movwf	clcd_print@addr^0,c
  3246   00153E  ECAF  F013         	call	_clcd_print	;wreg free
  3247   001542                     
  3248                           ;login.c: 138:         clcd_print("            ",(0xC0 + (4)));
  3249   001542  0EBE               	movlw	low STR_10
  3250   001544  6E03               	movwf	clcd_print@data^0,c
  3251   001546  0E2F               	movlw	high STR_10
  3252   001548  6E04               	movwf	(clcd_print@data+1)^0,c
  3253   00154A  0EC4               	movlw	196
  3254   00154C  6E05               	movwf	clcd_print@addr^0,c
  3255   00154E  ECAF  F013         	call	_clcd_print	;wreg free
  3256   001552                     l272:
  3257   001552  0012               	return		;funcret
  3258   001554                     __end_of_login_BB:
  3259                           	callstack 0
  3260                           
  3261 ;; *************** function _read_password *****************
  3262 ;; Defined at:
  3263 ;;		line 147 in file "login.c"
  3264 ;; Parameters:    Size  Location     Type
  3265 ;;  psw_arr         2    3[COMRAM] PTR unsigned char 
  3266 ;;		 -> psw_arr(5), 
  3267 ;; Auto vars:     Size  Location     Type
  3268 ;;		None
  3269 ;; Return value:  Size  Location     Type
  3270 ;;                  1    wreg      void 
  3271 ;; Registers used:
  3272 ;;		wreg, fsr2l, fsr2h, status,2, status,0, cstack
  3273 ;; Tracked objects:
  3274 ;;		On entry : 0/0
  3275 ;;		On exit  : 0/0
  3276 ;;		Unchanged: 0/0
  3277 ;; Data sizes:     COMRAM   BANK0   BANK1   BANK2   BANK3   BANK4   BANK5
  3278 ;;      Params:         2       0       0       0       0       0       0
  3279 ;;      Locals:         0       0       0       0       0       0       0
  3280 ;;      Temps:          0       0       0       0       0       0       0
  3281 ;;      Totals:         2       0       0       0       0       0       0
  3282 ;;Total ram usage:        2 bytes
  3283 ;; Hardware stack levels used: 1
  3284 ;; Hardware stack levels required when called: 5
  3285 ;; This function calls:
  3286 ;;		_read_external_eeprom
  3287 ;; This function is called by:
  3288 ;;		_login_BB
  3289 ;; This function uses a non-reentrant model
  3290 ;;
  3291                           
  3292                           	psect	text13
  3293   002830                     __ptext13:
  3294                           	callstack 0
  3295   002830                     _read_password:
  3296                           	callstack 23
  3297   002830                     
  3298                           ;login.c: 147: void read_password(unsigned char *psw_arr);login.c: 148: {;login.c: 149: 
      +                              psw_arr[0] = (read_external_eeprom(0x34)+48);
  3299   002830  0E34               	movlw	52
  3300   002832  EC8A  F015         	call	_read_external_eeprom
  3301   002836  0F30               	addlw	48
  3302   002838  C004  FFD9         	movff	read_password@psw_arr,fsr2l
  3303   00283C  C005  FFDA         	movff	read_password@psw_arr+1,fsr2h
  3304   002840  6EDF               	movwf	indf2,c
  3305                           
  3306                           ;login.c: 150:     psw_arr[1] = (read_external_eeprom(0x34 +1)+48);
  3307   002842  EE20 F001          	lfsr	2,1
  3308   002846  5004               	movf	read_password@psw_arr^0,w,c
  3309   002848  26D9               	addwf	fsr2l,f,c
  3310   00284A  5005               	movf	(read_password@psw_arr+1)^0,w,c
  3311   00284C  22DA               	addwfc	fsr2h,f,c
  3312   00284E  0E35               	movlw	53
  3313   002850  EC8A  F015         	call	_read_external_eeprom
  3314   002854  0F30               	addlw	48
  3315   002856  6EDF               	movwf	indf2,c
  3316                           
  3317                           ;login.c: 151:     psw_arr[2] = (read_external_eeprom(0x34 +2)+48);
  3318   002858  EE20 F002          	lfsr	2,2
  3319   00285C  5004               	movf	read_password@psw_arr^0,w,c
  3320   00285E  26D9               	addwf	fsr2l,f,c
  3321   002860  5005               	movf	(read_password@psw_arr+1)^0,w,c
  3322   002862  22DA               	addwfc	fsr2h,f,c
  3323   002864  0E36               	movlw	54
  3324   002866  EC8A  F015         	call	_read_external_eeprom
  3325   00286A  0F30               	addlw	48
  3326   00286C  6EDF               	movwf	indf2,c
  3327                           
  3328                           ;login.c: 152:     psw_arr[3] = (read_external_eeprom(0x34 +3)+48);
  3329   00286E  EE20 F003          	lfsr	2,3
  3330   002872  5004               	movf	read_password@psw_arr^0,w,c
  3331   002874  26D9               	addwf	fsr2l,f,c
  3332   002876  5005               	movf	(read_password@psw_arr+1)^0,w,c
  3333   002878  22DA               	addwfc	fsr2h,f,c
  3334   00287A  0E37               	movlw	55
  3335   00287C  EC8A  F015         	call	_read_external_eeprom
  3336   002880  0F30               	addlw	48
  3337   002882  6EDF               	movwf	indf2,c
  3338   002884                     
  3339                           ;login.c: 153:     psw_arr[4] = '\0';
  3340   002884  EE20 F004          	lfsr	2,4
  3341   002888  5004               	movf	read_password@psw_arr^0,w,c
  3342   00288A  26D9               	addwf	fsr2l,f,c
  3343   00288C  5005               	movf	(read_password@psw_arr+1)^0,w,c
  3344   00288E  22DA               	addwfc	fsr2h,f,c
  3345   002890  6ADF               	clrf	indf2,c
  3346   002892  0012               	return		;funcret
  3347   002894                     __end_of_read_password:
  3348                           	callstack 0
  3349                           
  3350 ;; *************** function _display_menu *****************
  3351 ;; Defined at:
  3352 ;;		line 32 in file "menu.c"
  3353 ;; Parameters:    Size  Location     Type
  3354 ;;  key             1    wreg     unsigned char 
  3355 ;; Auto vars:     Size  Location     Type
  3356 ;;  key             1   40[COMRAM] unsigned char 
  3357 ;;  key_viewlog     1   41[COMRAM] unsigned char 
  3358 ;; Return value:  Size  Location     Type
  3359 ;;                  1    wreg      void 
  3360 ;; Registers used:
  3361 ;;		wreg, fsr0l, fsr0h, fsr1l, fsr1h, fsr2l, fsr2h, status,2, status,0, tblptrl, tblptrh, tblptru, prodl, prodh, cstack
  3362 ;; Tracked objects:
  3363 ;;		On entry : 0/0
  3364 ;;		On exit  : 0/0
  3365 ;;		Unchanged: 0/0
  3366 ;; Data sizes:     COMRAM   BANK0   BANK1   BANK2   BANK3   BANK4   BANK5
  3367 ;;      Params:         0       0       0       0       0       0       0
  3368 ;;      Locals:         2       0       0       0       0       0       0
  3369 ;;      Temps:          5       0       0       0       0       0       0
  3370 ;;      Totals:         7       0       0       0       0       0       0
  3371 ;;Total ram usage:        7 bytes
  3372 ;; Hardware stack levels used: 1
  3373 ;; Hardware stack levels required when called: 7
  3374 ;; This function calls:
  3375 ;;		_change_password
  3376 ;;		_clcd_print
  3377 ;;		_clear_log
  3378 ;;		_display_list
  3379 ;;		_download_log
  3380 ;;		_read_external_eeprom
  3381 ;;		_read_switches
  3382 ;;		_set_time
  3383 ;;		_view_log
  3384 ;; This function is called by:
  3385 ;;		_login_BB
  3386 ;; This function uses a non-reentrant model
  3387 ;;
  3388                           
  3389                           	psect	text14
  3390   000A94                     __ptext14:
  3391                           	callstack 0
  3392   000A94                     _display_menu:
  3393                           	callstack 21
  3394                           
  3395                           ;incstack = 0
  3396                           ;display_menu@key stored from wreg
  3397   000A94  6E29               	movwf	display_menu@key^0,c
  3398   000A96                     
  3399                           ;menu.c: 34:     key_level = read_switches(0);
  3400   000A96  0E00               	movlw	0
  3401   000A98  EC3E  F013         	call	_read_switches
  3402   000A9C  6E4A               	movwf	_key_level^0,c
  3403   000A9E                     
  3404                           ;menu.c: 36:     if(key_level == 6 && ++delay2>2000)
  3405   000A9E  0E06               	movlw	6
  3406   000AA0  184A               	xorwf	_key_level^0,w,c
  3407   000AA2  A4D8               	btfss	status,2,c
  3408   000AA4  EF56  F005         	goto	u2961
  3409   000AA8  EF58  F005         	goto	u2960
  3410   000AAC                     u2961:
  3411   000AAC  EF76  F005         	goto	l3784
  3412   000AB0                     u2960:
  3413   000AB0  0100               	movlb	0	; () banked
  3414   000AB2  4BBE               	infsnz	_delay2& (0+255),f,b
  3415   000AB4  2BBF               	incf	(_delay2+1)& (0+255),f,b
  3416   000AB6  0ED1               	movlw	209
  3417   000AB8  5DBE               	subwf	_delay2& (0+255),w,b
  3418   000ABA  0E07               	movlw	7
  3419   000ABC  59BF               	subwfb	(_delay2+1)& (0+255),w,b
  3420   000ABE  A0D8               	btfss	status,0,c
  3421   000AC0  EF64  F005         	goto	u2971
  3422   000AC4  EF66  F005         	goto	u2970
  3423   000AC8                     u2971:
  3424   000AC8  EF76  F005         	goto	l3784
  3425   000ACC                     u2970:
  3426   000ACC                     
  3427                           ; BSR set to: 0
  3428                           ;menu.c: 37:     {;menu.c: 38:                     delay2=0;
  3429   000ACC  0E00               	movlw	0
  3430   000ACE  6FBF               	movwf	(_delay2+1)& (0+255),b
  3431   000AD0  0E00               	movlw	0
  3432   000AD2  6FBE               	movwf	_delay2& (0+255),b
  3433                           
  3434                           ;menu.c: 39:                     log_flag = 0;
  3435   000AD4  0E00               	movlw	0
  3436   000AD6  6E46               	movwf	_log_flag^0,c
  3437                           
  3438                           ;menu.c: 40:                     list_index = 0;
  3439   000AD8  0E00               	movlw	0
  3440   000ADA  6E4B               	movwf	_list_index^0,c
  3441                           
  3442                           ;menu.c: 41:                     menu_pos = 0;
  3443   000ADC  0E00               	movlw	0
  3444   000ADE  6E49               	movwf	_menu_pos^0,c
  3445                           
  3446                           ;menu.c: 42:                     direction_flag =1;
  3447   000AE0  0E01               	movlw	1
  3448   000AE2  6E56               	movwf	_direction_flag^0,c
  3449                           
  3450                           ;menu.c: 43:                     psw_mode_flag=0;
  3451   000AE4  0E00               	movlw	0
  3452   000AE6  6E4D               	movwf	_psw_mode_flag^0,c
  3453                           
  3454                           ;menu.c: 46:     }
  3455   000AE8  EF2E  F007         	goto	l396
  3456   000AEC                     l3784:
  3457   000AEC  0446               	decf	_log_flag^0,w,c
  3458   000AEE  B4D8               	btfsc	status,2,c
  3459   000AF0  EF7C  F005         	goto	u2981
  3460   000AF4  EF7E  F005         	goto	u2980
  3461   000AF8                     u2981:
  3462   000AF8  EF95  F005         	goto	l3790
  3463   000AFC                     u2980:
  3464   000AFC  0E05               	movlw	5
  3465   000AFE  184A               	xorwf	_key_level^0,w,c
  3466   000B00  A4D8               	btfss	status,2,c
  3467   000B02  EF85  F005         	goto	u2991
  3468   000B06  EF87  F005         	goto	u2990
  3469   000B0A                     u2991:
  3470   000B0A  EFBA  F006         	goto	l3882
  3471   000B0E                     u2990:
  3472   000B0E  0100               	movlb	0	; () banked
  3473   000B10  4BC0               	infsnz	_delay1& (0+255),f,b
  3474   000B12  2BC1               	incf	(_delay1+1)& (0+255),f,b
  3475   000B14  0ED1               	movlw	209
  3476   000B16  5DC0               	subwf	_delay1& (0+255),w,b
  3477   000B18  0E07               	movlw	7
  3478   000B1A  59C1               	subwfb	(_delay1+1)& (0+255),w,b
  3479   000B1C  A0D8               	btfss	status,0,c
  3480   000B1E  EF93  F005         	goto	u3001
  3481   000B22  EF95  F005         	goto	u3000
  3482   000B26                     u3001:
  3483   000B26  EFBA  F006         	goto	l3882
  3484   000B2A                     u3000:
  3485   000B2A                     l3790:
  3486                           
  3487                           ;menu.c: 49:     {;menu.c: 50:         log_count = read_external_eeprom(0x33);
  3488   000B2A  0E33               	movlw	51
  3489   000B2C  EC8A  F015         	call	_read_external_eeprom
  3490   000B30  6E47               	movwf	_log_count^0,c
  3491   000B32                     
  3492                           ;menu.c: 51:         delay1 =0;
  3493   000B32  0E00               	movlw	0
  3494   000B34  0100               	movlb	0	; () banked
  3495   000B36  6FC1               	movwf	(_delay1+1)& (0+255),b
  3496   000B38  0E00               	movlw	0
  3497   000B3A  6FC0               	movwf	_delay1& (0+255),b
  3498   000B3C                     
  3499                           ; BSR set to: 0
  3500                           ;menu.c: 54:         if(menu_pos == 0)
  3501   000B3C  5049               	movf	_menu_pos^0,w,c
  3502   000B3E  A4D8               	btfss	status,2,c
  3503   000B40  EFA4  F005         	goto	u3011
  3504   000B44  EFA6  F005         	goto	u3010
  3505   000B48                     u3011:
  3506   000B48  EF7A  F006         	goto	l3846
  3507   000B4C                     u3010:
  3508   000B4C                     
  3509                           ; BSR set to: 0
  3510                           ;menu.c: 55:         {;menu.c: 57:             log_flag = 1;
  3511   000B4C  0E01               	movlw	1
  3512   000B4E  6E46               	movwf	_log_flag^0,c
  3513                           
  3514                           ;menu.c: 59:             if(log_count != 0 && log_flag == 1)
  3515   000B50  5047               	movf	_log_count^0,w,c
  3516   000B52  B4D8               	btfsc	status,2,c
  3517   000B54  EFAE  F005         	goto	u3021
  3518   000B58  EFB0  F005         	goto	u3020
  3519   000B5C                     u3021:
  3520   000B5C  EF2E  F006         	goto	l3828
  3521   000B60                     u3020:
  3522   000B60                     
  3523                           ; BSR set to: 0
  3524   000B60  0446               	decf	_log_flag^0,w,c
  3525   000B62  A4D8               	btfss	status,2,c
  3526   000B64  EFB6  F005         	goto	u3031
  3527   000B68  EFB8  F005         	goto	u3030
  3528   000B6C                     u3031:
  3529   000B6C  EF2E  F006         	goto	l3828
  3530   000B70                     u3030:
  3531   000B70                     
  3532                           ; BSR set to: 0
  3533                           ;menu.c: 60:             {;menu.c: 61:                 unsigned char key_viewlog = read_
      +                          switches(0);
  3534   000B70  0E00               	movlw	0
  3535   000B72  EC3E  F013         	call	_read_switches
  3536   000B76  6E2A               	movwf	display_menu@key_viewlog^0,c
  3537   000B78                     
  3538                           ;menu.c: 62:                 clcd_print("  TIME   EV SP ",(0x80 + (0)));
  3539   000B78  0E7F               	movlw	low STR_16
  3540   000B7A  6E03               	movwf	clcd_print@data^0,c
  3541   000B7C  0E2F               	movlw	high STR_16
  3542   000B7E  6E04               	movwf	(clcd_print@data+1)^0,c
  3543   000B80  0E80               	movlw	128
  3544   000B82  6E05               	movwf	clcd_print@addr^0,c
  3545   000B84  ECAF  F013         	call	_clcd_print	;wreg free
  3546   000B88                     
  3547                           ;menu.c: 65:                 if(key_viewlog == 6 && ++delay3>2000)
  3548   000B88  0E06               	movlw	6
  3549   000B8A  182A               	xorwf	display_menu@key_viewlog^0,w,c
  3550   000B8C  A4D8               	btfss	status,2,c
  3551   000B8E  EFCB  F005         	goto	u3041
  3552   000B92  EFCD  F005         	goto	u3040
  3553   000B96                     u3041:
  3554   000B96  EFE9  F005         	goto	l3810
  3555   000B9A                     u3040:
  3556   000B9A  0100               	movlb	0	; () banked
  3557   000B9C  4BBC               	infsnz	_delay3& (0+255),f,b
  3558   000B9E  2BBD               	incf	(_delay3+1)& (0+255),f,b
  3559   000BA0  0ED1               	movlw	209
  3560   000BA2  5DBC               	subwf	_delay3& (0+255),w,b
  3561   000BA4  0E07               	movlw	7
  3562   000BA6  59BD               	subwfb	(_delay3+1)& (0+255),w,b
  3563   000BA8  A0D8               	btfss	status,0,c
  3564   000BAA  EFD9  F005         	goto	u3051
  3565   000BAE  EFDB  F005         	goto	u3050
  3566   000BB2                     u3051:
  3567   000BB2  EFE9  F005         	goto	l3810
  3568   000BB6                     u3050:
  3569   000BB6                     
  3570                           ; BSR set to: 0
  3571                           ;menu.c: 66:                 {;menu.c: 68:                                 log_flag = 0;
  3572   000BB6  0E00               	movlw	0
  3573   000BB8  6E46               	movwf	_log_flag^0,c
  3574                           
  3575                           ;menu.c: 69:                                 list_index = 0;
  3576   000BBA  0E00               	movlw	0
  3577   000BBC  6E4B               	movwf	_list_index^0,c
  3578                           
  3579                           ;menu.c: 70:                                 menu_pos = 0;
  3580   000BBE  0E00               	movlw	0
  3581   000BC0  6E49               	movwf	_menu_pos^0,c
  3582                           
  3583                           ;menu.c: 71:                                 direction_flag =1;
  3584   000BC2  0E01               	movlw	1
  3585   000BC4  6E56               	movwf	_direction_flag^0,c
  3586                           
  3587                           ;menu.c: 72:                                 psw_mode_flag=0;
  3588   000BC6  0E00               	movlw	0
  3589   000BC8  6E4D               	movwf	_psw_mode_flag^0,c
  3590                           
  3591                           ;menu.c: 73:                                 delay3 = 0;
  3592   000BCA  0E00               	movlw	0
  3593   000BCC  6FBD               	movwf	(_delay3+1)& (0+255),b
  3594   000BCE  0E00               	movlw	0
  3595   000BD0  6FBC               	movwf	_delay3& (0+255),b
  3596   000BD2                     l3810:
  3597                           
  3598                           ;menu.c: 76:                 if((key_viewlog == 0xFF && delay3>0) && list_event<log_coun
      +                          t-1)
  3599   000BD2  282A               	incf	display_menu@key_viewlog^0,w,c
  3600   000BD4  A4D8               	btfss	status,2,c
  3601   000BD6  EFEF  F005         	goto	u3061
  3602   000BDA  EFF1  F005         	goto	u3060
  3603   000BDE                     u3061:
  3604   000BDE  EF18  F006         	goto	l3820
  3605   000BE2                     u3060:
  3606   000BE2  0100               	movlb	0	; () banked
  3607   000BE4  51BC               	movf	_delay3& (0+255),w,b
  3608   000BE6  11BD               	iorwf	(_delay3+1)& (0+255),w,b
  3609   000BE8  B4D8               	btfsc	status,2,c
  3610   000BEA  EFF9  F005         	goto	u3071
  3611   000BEE  EFFB  F005         	goto	u3070
  3612   000BF2                     u3071:
  3613   000BF2  EF18  F006         	goto	l3820
  3614   000BF6                     u3070:
  3615   000BF6                     
  3616                           ; BSR set to: 0
  3617   000BF6  0EFF               	movlw	255
  3618   000BF8  2447               	addwf	_log_count^0,w,c
  3619   000BFA  6E24               	movwf	??_display_menu^0,c
  3620   000BFC  6A25               	clrf	(??_display_menu+1)^0,c
  3621   000BFE  0EFF               	movlw	255
  3622   000C00  2225               	addwfc	(??_display_menu+1)^0,f,c
  3623   000C02  5048               	movf	_list_event^0,w,c
  3624   000C04  6E26               	movwf	(??_display_menu+2)^0,c
  3625   000C06  6A27               	clrf	(??_display_menu+3)^0,c
  3626   000C08  5024               	movf	??_display_menu^0,w,c
  3627   000C0A  5C26               	subwf	(??_display_menu+2)^0,w,c
  3628   000C0C  5027               	movf	(??_display_menu+3)^0,w,c
  3629   000C0E  0A80               	xorlw	128
  3630   000C10  6E28               	movwf	(??_display_menu+4)^0,c
  3631   000C12  5025               	movf	(??_display_menu+1)^0,w,c
  3632   000C14  0A80               	xorlw	128
  3633   000C16  5828               	subwfb	(??_display_menu+4)^0,w,c
  3634   000C18  B0D8               	btfsc	status,0,c
  3635   000C1A  EF11  F006         	goto	u3081
  3636   000C1E  EF13  F006         	goto	u3080
  3637   000C22                     u3081:
  3638   000C22  EF18  F006         	goto	l3820
  3639   000C26                     u3080:
  3640   000C26                     
  3641                           ; BSR set to: 0
  3642                           ;menu.c: 77:                 {;menu.c: 78:                     delay3=0;
  3643   000C26  0E00               	movlw	0
  3644   000C28  6FBD               	movwf	(_delay3+1)& (0+255),b
  3645   000C2A  0E00               	movlw	0
  3646   000C2C  6FBC               	movwf	_delay3& (0+255),b
  3647   000C2E                     
  3648                           ; BSR set to: 0
  3649                           ;menu.c: 79:                     list_event++;
  3650   000C2E  2A48               	incf	_list_event^0,f,c
  3651   000C30                     l3820:
  3652                           
  3653                           ;menu.c: 82:                 if(key == 5 && list_event >0)
  3654   000C30  0E05               	movlw	5
  3655   000C32  1829               	xorwf	display_menu@key^0,w,c
  3656   000C34  A4D8               	btfss	status,2,c
  3657   000C36  EF1F  F006         	goto	u3091
  3658   000C3A  EF21  F006         	goto	u3090
  3659   000C3E                     u3091:
  3660   000C3E  EF2A  F006         	goto	l3826
  3661   000C42                     u3090:
  3662   000C42  5048               	movf	_list_event^0,w,c
  3663   000C44  B4D8               	btfsc	status,2,c
  3664   000C46  EF27  F006         	goto	u3101
  3665   000C4A  EF29  F006         	goto	u3100
  3666   000C4E                     u3101:
  3667   000C4E  EF2A  F006         	goto	l3826
  3668   000C52                     u3100:
  3669   000C52                     
  3670                           ;menu.c: 83:                 {;menu.c: 84:                     list_event--;
  3671   000C52  0648               	decf	_list_event^0,f,c
  3672   000C54                     l3826:
  3673                           
  3674                           ;menu.c: 86:                 view_log();
  3675   000C54  EC26  F00C         	call	_view_log	;wreg free
  3676                           
  3677                           ;menu.c: 87:             }
  3678   000C58  EF2E  F007         	goto	l396
  3679   000C5C                     l3828:
  3680                           
  3681                           ; BSR set to: 0
  3682                           ;menu.c: 90:             {;menu.c: 91:                 clcd_print("    VIEW LOG    ",(0x
      +                          80 + (0)));
  3683   000C5C  0E62               	movlw	low STR_17
  3684   000C5E  6E03               	movwf	clcd_print@data^0,c
  3685   000C60  0E2E               	movlw	high STR_17
  3686   000C62  6E04               	movwf	(clcd_print@data+1)^0,c
  3687   000C64  0E80               	movlw	128
  3688   000C66  6E05               	movwf	clcd_print@addr^0,c
  3689   000C68  ECAF  F013         	call	_clcd_print	;wreg free
  3690                           
  3691                           ;menu.c: 92:                 clcd_print("     EMPTY      ",(0xC0 + (0)));
  3692   000C6C  0E40               	movlw	low STR_18
  3693   000C6E  6E03               	movwf	clcd_print@data^0,c
  3694   000C70  0E2E               	movlw	high STR_18
  3695   000C72  6E04               	movwf	(clcd_print@data+1)^0,c
  3696   000C74  0EC0               	movlw	192
  3697   000C76  6E05               	movwf	clcd_print@addr^0,c
  3698   000C78  ECAF  F013         	call	_clcd_print	;wreg free
  3699   000C7C                     
  3700                           ;menu.c: 94:                 flag_5_sec = 0;
  3701   000C7C  0E00               	movlw	0
  3702   000C7E  6E50               	movwf	_flag_5_sec^0,c
  3703   000C80                     
  3704                           ;menu.c: 95:                 TMR0 = 6;
  3705   000C80  0E00               	movlw	0
  3706   000C82  6ED7               	movwf	215,c	;volatile
  3707   000C84  0E06               	movlw	6
  3708   000C86  6ED6               	movwf	214,c	;volatile
  3709   000C88                     
  3710                           ;menu.c: 96:                 TMR0IF = 0;
  3711   000C88  94F2               	bcf	4082,2,c	;volatile
  3712   000C8A                     
  3713                           ;menu.c: 97:                 count=0;
  3714   000C8A  0E00               	movlw	0
  3715   000C8C  0100               	movlb	0	; () banked
  3716   000C8E  6FB4               	movwf	_count& (0+255),b
  3717   000C90  0E00               	movlw	0
  3718   000C92  6FB5               	movwf	(_count+1)& (0+255),b
  3719   000C94  0E00               	movlw	0
  3720   000C96  6FB6               	movwf	(_count+2)& (0+255),b
  3721   000C98  0E00               	movlw	0
  3722   000C9A  6FB7               	movwf	(_count+3)& (0+255),b
  3723   000C9C                     
  3724                           ; BSR set to: 0
  3725                           ;menu.c: 98:                 TMR0IE = 1;
  3726   000C9C  8AF2               	bsf	4082,5,c	;volatile
  3727   000C9E                     l3840:
  3728   000C9E  5050               	movf	_flag_5_sec^0,w,c
  3729   000CA0  B4D8               	btfsc	status,2,c
  3730   000CA2  EF55  F006         	goto	u3111
  3731   000CA6  EF57  F006         	goto	u3110
  3732   000CAA                     u3111:
  3733   000CAA  EF4F  F006         	goto	l3840
  3734   000CAE                     u3110:
  3735   000CAE                     
  3736                           ;menu.c: 100:                 TMR0IE = 0;
  3737   000CAE  9AF2               	bcf	4082,5,c	;volatile
  3738   000CB0                     
  3739                           ;menu.c: 101:                 flag_5_sec = 0;
  3740   000CB0  0E00               	movlw	0
  3741   000CB2  6E50               	movwf	_flag_5_sec^0,c
  3742                           
  3743                           ;menu.c: 102:                 flag_1_sec = 0;
  3744   000CB4  0E00               	movlw	0
  3745   000CB6  6E58               	movwf	_flag_1_sec^0,c
  3746                           
  3747                           ;menu.c: 103:                 TMR0 = 6;
  3748   000CB8  0E00               	movlw	0
  3749   000CBA  6ED7               	movwf	215,c	;volatile
  3750   000CBC  0E06               	movlw	6
  3751   000CBE  6ED6               	movwf	214,c	;volatile
  3752   000CC0                     
  3753                           ;menu.c: 104:                 TMR0IF = 0;
  3754   000CC0  94F2               	bcf	4082,2,c	;volatile
  3755                           
  3756                           ;menu.c: 105:                 min_count = 0;
  3757   000CC2  0E00               	movlw	0
  3758   000CC4  0100               	movlb	0	; () banked
  3759   000CC6  6FC3               	movwf	(_min_count+1)& (0+255),b
  3760   000CC8  0E00               	movlw	0
  3761   000CCA  6FC2               	movwf	_min_count& (0+255),b
  3762                           
  3763                           ;menu.c: 106:                 count=0;
  3764   000CCC  0E00               	movlw	0
  3765   000CCE  6FB4               	movwf	_count& (0+255),b
  3766   000CD0  0E00               	movlw	0
  3767   000CD2  6FB5               	movwf	(_count+1)& (0+255),b
  3768   000CD4  0E00               	movlw	0
  3769   000CD6  6FB6               	movwf	(_count+2)& (0+255),b
  3770   000CD8  0E00               	movlw	0
  3771   000CDA  6FB7               	movwf	(_count+3)& (0+255),b
  3772                           
  3773                           ;menu.c: 107:                 log_flag = 0;
  3774   000CDC  0E00               	movlw	0
  3775   000CDE  6E46               	movwf	_log_flag^0,c
  3776                           
  3777                           ;menu.c: 108:                 menu_pos = 0;
  3778   000CE0  0E00               	movlw	0
  3779   000CE2  6E49               	movwf	_menu_pos^0,c
  3780                           
  3781                           ;menu.c: 109:                 list_index = 0;
  3782   000CE4  0E00               	movlw	0
  3783   000CE6  6E4B               	movwf	_list_index^0,c
  3784                           
  3785                           ;menu.c: 110:                 direction_flag =1;
  3786   000CE8  0E01               	movlw	1
  3787   000CEA  6E56               	movwf	_direction_flag^0,c
  3788   000CEC  EF2E  F007         	goto	l396
  3789   000CF0                     l372:
  3790                           
  3791                           ; BSR set to: 0
  3792                           ;menu.c: 112:         }
  3793   000CF0  EF2E  F007         	goto	l396
  3794   000CF4                     l3846:
  3795                           
  3796                           ; BSR set to: 0
  3797   000CF4  0449               	decf	_menu_pos^0,w,c
  3798   000CF6  A4D8               	btfss	status,2,c
  3799   000CF8  EF80  F006         	goto	u3121
  3800   000CFC  EF82  F006         	goto	u3120
  3801   000D00                     u3121:
  3802   000D00  EF8E  F006         	goto	l3858
  3803   000D04                     u3120:
  3804   000D04                     
  3805                           ; BSR set to: 0
  3806                           ;menu.c: 115:         {;menu.c: 116:             download_log();
  3807   000D04  EC79  F012         	call	_download_log	;wreg free
  3808   000D08                     l3850:
  3809                           
  3810                           ;menu.c: 117:             log_flag = 0;
  3811   000D08  0E00               	movlw	0
  3812   000D0A  6E46               	movwf	_log_flag^0,c
  3813   000D0C                     
  3814                           ;menu.c: 118:             list_index = 0;
  3815   000D0C  0E00               	movlw	0
  3816   000D0E  6E4B               	movwf	_list_index^0,c
  3817   000D10                     
  3818                           ;menu.c: 119:             menu_pos = 0;
  3819   000D10  0E00               	movlw	0
  3820   000D12  6E49               	movwf	_menu_pos^0,c
  3821   000D14                     
  3822                           ;menu.c: 120:             direction_flag =1;
  3823   000D14  0E01               	movlw	1
  3824   000D16  6E56               	movwf	_direction_flag^0,c
  3825                           
  3826                           ;menu.c: 122:         }
  3827   000D18  EF2E  F007         	goto	l396
  3828   000D1C                     l3858:
  3829                           
  3830                           ; BSR set to: 0
  3831   000D1C  0E02               	movlw	2
  3832   000D1E  1849               	xorwf	_menu_pos^0,w,c
  3833   000D20  A4D8               	btfss	status,2,c
  3834   000D22  EF95  F006         	goto	u3131
  3835   000D26  EF97  F006         	goto	u3130
  3836   000D2A                     u3131:
  3837   000D2A  EF9B  F006         	goto	l3870
  3838   000D2E                     u3130:
  3839   000D2E                     
  3840                           ; BSR set to: 0
  3841                           ;menu.c: 125:         {;menu.c: 126:             clear_log();
  3842   000D2E  EC33  F012         	call	_clear_log	;wreg free
  3843   000D32  EF84  F006         	goto	l3850
  3844   000D36                     l3870:
  3845                           
  3846                           ; BSR set to: 0
  3847   000D36  0E03               	movlw	3
  3848   000D38  1849               	xorwf	_menu_pos^0,w,c
  3849   000D3A  A4D8               	btfss	status,2,c
  3850   000D3C  EFA2  F006         	goto	u3141
  3851   000D40  EFA4  F006         	goto	u3140
  3852   000D44                     u3141:
  3853   000D44  EFAA  F006         	goto	l3876
  3854   000D48                     u3140:
  3855   000D48                     
  3856                           ; BSR set to: 0
  3857                           ;menu.c: 134:         {;menu.c: 135:             log_flag = 1;
  3858   000D48  0E01               	movlw	1
  3859   000D4A  6E46               	movwf	_log_flag^0,c
  3860   000D4C                     
  3861                           ; BSR set to: 0
  3862                           ;menu.c: 136:             set_time();
  3863   000D4C  EC09  F000         	call	_set_time	;wreg free
  3864                           
  3865                           ;menu.c: 138:         }
  3866   000D50  EF2E  F007         	goto	l396
  3867   000D54                     l3876:
  3868                           
  3869                           ; BSR set to: 0
  3870   000D54  0E04               	movlw	4
  3871   000D56  1849               	xorwf	_menu_pos^0,w,c
  3872   000D58  A4D8               	btfss	status,2,c
  3873   000D5A  EFB1  F006         	goto	u3151
  3874   000D5E  EFB3  F006         	goto	u3150
  3875   000D62                     u3151:
  3876   000D62  EF78  F006         	goto	l372
  3877   000D66                     u3150:
  3878   000D66                     
  3879                           ; BSR set to: 0
  3880                           ;menu.c: 141:         {;menu.c: 142:             log_flag = 1;
  3881   000D66  0E01               	movlw	1
  3882   000D68  6E46               	movwf	_log_flag^0,c
  3883   000D6A                     
  3884                           ; BSR set to: 0
  3885                           ;menu.c: 143:             change_password(key);
  3886   000D6A  5029               	movf	display_menu@key^0,w,c
  3887   000D6C  ECF8  F002         	call	_change_password
  3888   000D70  EF2E  F007         	goto	l396
  3889   000D74                     l3882:
  3890                           
  3891                           ;menu.c: 149:     {;menu.c: 151:     if(key_level == 0xFF && delay2>0)
  3892   000D74  284A               	incf	_key_level^0,w,c
  3893   000D76  A4D8               	btfss	status,2,c
  3894   000D78  EFC0  F006         	goto	u3161
  3895   000D7C  EFC2  F006         	goto	u3160
  3896   000D80                     u3161:
  3897   000D80  EFF0  F006         	goto	l3898
  3898   000D84                     u3160:
  3899   000D84  0100               	movlb	0	; () banked
  3900   000D86  51BE               	movf	_delay2& (0+255),w,b
  3901   000D88  11BF               	iorwf	(_delay2+1)& (0+255),w,b
  3902   000D8A  B4D8               	btfsc	status,2,c
  3903   000D8C  EFCA  F006         	goto	u3171
  3904   000D90  EFCC  F006         	goto	u3170
  3905   000D94                     u3171:
  3906   000D94  EFF0  F006         	goto	l3898
  3907   000D98                     u3170:
  3908   000D98                     
  3909                           ; BSR set to: 0
  3910                           ;menu.c: 152:     {;menu.c: 153:         delay2=0;
  3911   000D98  0E00               	movlw	0
  3912   000D9A  6FBF               	movwf	(_delay2+1)& (0+255),b
  3913   000D9C  0E00               	movlw	0
  3914   000D9E  6FBE               	movwf	_delay2& (0+255),b
  3915                           
  3916                           ;menu.c: 154:         if(direction_flag == 0)
  3917   000DA0  5056               	movf	_direction_flag^0,w,c
  3918   000DA2  A4D8               	btfss	status,2,c
  3919   000DA4  EFD6  F006         	goto	u3181
  3920   000DA8  EFD8  F006         	goto	u3180
  3921   000DAC                     u3181:
  3922   000DAC  EFE3  F006         	goto	l3892
  3923   000DB0                     u3180:
  3924   000DB0                     
  3925                           ; BSR set to: 0
  3926                           ;menu.c: 155:         {;menu.c: 156:             if(list_index<3)
  3927   000DB0  0E03               	movlw	3
  3928   000DB2  604B               	cpfslt	_list_index^0,c
  3929   000DB4  EFDE  F006         	goto	u3191
  3930   000DB8  EFE0  F006         	goto	u3190
  3931   000DBC                     u3191:
  3932   000DBC  EFE5  F006         	goto	l3894
  3933   000DC0                     u3190:
  3934   000DC0                     
  3935                           ; BSR set to: 0
  3936                           ;menu.c: 157:                 list_index++;
  3937   000DC0  2A4B               	incf	_list_index^0,f,c
  3938   000DC2  EFE5  F006         	goto	l3894
  3939   000DC6                     l3892:
  3940                           
  3941                           ; BSR set to: 0
  3942                           ;menu.c: 160:             direction_flag = 0;
  3943   000DC6  0E00               	movlw	0
  3944   000DC8  6E56               	movwf	_direction_flag^0,c
  3945   000DCA                     l3894:
  3946                           
  3947                           ; BSR set to: 0
  3948                           ;menu.c: 162:         if(menu_pos < 4)
  3949   000DCA  0E04               	movlw	4
  3950   000DCC  6049               	cpfslt	_menu_pos^0,c
  3951   000DCE  EFEB  F006         	goto	u3201
  3952   000DD2  EFED  F006         	goto	u3200
  3953   000DD6                     u3201:
  3954   000DD6  EF24  F007         	goto	l3912
  3955   000DDA                     u3200:
  3956   000DDA                     
  3957                           ; BSR set to: 0
  3958                           ;menu.c: 163:         menu_pos++;
  3959   000DDA  2A49               	incf	_menu_pos^0,f,c
  3960   000DDC  EF24  F007         	goto	l3912
  3961   000DE0                     l3898:
  3962   000DE0  284A               	incf	_key_level^0,w,c
  3963   000DE2  A4D8               	btfss	status,2,c
  3964   000DE4  EFF6  F006         	goto	u3211
  3965   000DE8  EFF8  F006         	goto	u3210
  3966   000DEC                     u3211:
  3967   000DEC  EF24  F007         	goto	l3912
  3968   000DF0                     u3210:
  3969   000DF0  0100               	movlb	0	; () banked
  3970   000DF2  51C0               	movf	_delay1& (0+255),w,b
  3971   000DF4  11C1               	iorwf	(_delay1+1)& (0+255),w,b
  3972   000DF6  B4D8               	btfsc	status,2,c
  3973   000DF8  EF00  F007         	goto	u3221
  3974   000DFC  EF02  F007         	goto	u3220
  3975   000E00                     u3221:
  3976   000E00  EF24  F007         	goto	l3912
  3977   000E04                     u3220:
  3978   000E04                     
  3979                           ; BSR set to: 0
  3980                           ;menu.c: 167:     {;menu.c: 168:         delay1 = 0;
  3981   000E04  0E00               	movlw	0
  3982   000E06  6FC1               	movwf	(_delay1+1)& (0+255),b
  3983   000E08  0E00               	movlw	0
  3984   000E0A  6FC0               	movwf	_delay1& (0+255),b
  3985                           
  3986                           ;menu.c: 169:         if(direction_flag)
  3987   000E0C  5056               	movf	_direction_flag^0,w,c
  3988   000E0E  B4D8               	btfsc	status,2,c
  3989   000E10  EF0C  F007         	goto	u3231
  3990   000E14  EF0E  F007         	goto	u3230
  3991   000E18                     u3231:
  3992   000E18  EF19  F007         	goto	l3908
  3993   000E1C                     u3230:
  3994   000E1C                     
  3995                           ; BSR set to: 0
  3996                           ;menu.c: 170:         {;menu.c: 171:             if(list_index>0)
  3997   000E1C  504B               	movf	_list_index^0,w,c
  3998   000E1E  B4D8               	btfsc	status,2,c
  3999   000E20  EF14  F007         	goto	u3241
  4000   000E24  EF16  F007         	goto	u3240
  4001   000E28                     u3241:
  4002   000E28  EF1B  F007         	goto	l394
  4003   000E2C                     u3240:
  4004   000E2C                     
  4005                           ; BSR set to: 0
  4006                           ;menu.c: 172:                 list_index--;
  4007   000E2C  064B               	decf	_list_index^0,f,c
  4008   000E2E  EF1B  F007         	goto	l394
  4009   000E32                     l3908:
  4010                           
  4011                           ; BSR set to: 0
  4012                           ;menu.c: 175:             direction_flag = 1;
  4013   000E32  0E01               	movlw	1
  4014   000E34  6E56               	movwf	_direction_flag^0,c
  4015   000E36                     l394:
  4016                           
  4017                           ; BSR set to: 0
  4018                           ;menu.c: 176:         if(menu_pos >0)
  4019   000E36  5049               	movf	_menu_pos^0,w,c
  4020   000E38  B4D8               	btfsc	status,2,c
  4021   000E3A  EF21  F007         	goto	u3251
  4022   000E3E  EF23  F007         	goto	u3250
  4023   000E42                     u3251:
  4024   000E42  EF24  F007         	goto	l3912
  4025   000E46                     u3250:
  4026   000E46                     
  4027                           ; BSR set to: 0
  4028                           ;menu.c: 177:         menu_pos--;
  4029   000E46  0649               	decf	_menu_pos^0,f,c
  4030   000E48                     l3912:
  4031                           
  4032                           ;menu.c: 181:     display_list(menu_name,list_index,direction_flag);
  4033   000E48  0E86               	movlw	low _menu_name
  4034   000E4A  6E11               	movwf	display_list@menu_name^0,c
  4035   000E4C  0E00               	movlw	high _menu_name
  4036   000E4E  6E12               	movwf	(display_list@menu_name+1)^0,c
  4037   000E50  C04B  F013         	movff	_list_index,display_list@list_index
  4038   000E54  C056  F014         	movff	_direction_flag,display_list@direction_flag
  4039   000E58  EC16  F011         	call	_display_list	;wreg free
  4040   000E5C                     l396:
  4041   000E5C  0012               	return		;funcret
  4042   000E5E                     __end_of_display_menu:
  4043                           	callstack 0
  4044                           
  4045 ;; *************** function _view_log *****************
  4046 ;; Defined at:
  4047 ;;		line 211 in file "menu.c"
  4048 ;; Parameters:    Size  Location     Type
  4049 ;;		None
  4050 ;; Auto vars:     Size  Location     Type
  4051 ;;  i               4   18[COMRAM] long 
  4052 ;;  temp            1   22[COMRAM] unsigned char 
  4053 ;; Return value:  Size  Location     Type
  4054 ;;                  1    wreg      void 
  4055 ;; Registers used:
  4056 ;;		wreg, fsr2l, fsr2h, status,2, status,0, tblptrl, tblptrh, tblptru, prodl, prodh, cstack
  4057 ;; Tracked objects:
  4058 ;;		On entry : 0/0
  4059 ;;		On exit  : 0/0
  4060 ;;		Unchanged: 0/0
  4061 ;; Data sizes:     COMRAM   BANK0   BANK1   BANK2   BANK3   BANK4   BANK5
  4062 ;;      Params:         0       0       0       0       0       0       0
  4063 ;;      Locals:         5       0       0       0       0       0       0
  4064 ;;      Temps:          2       0       0       0       0       0       0
  4065 ;;      Totals:         7       0       0       0       0       0       0
  4066 ;;Total ram usage:        7 bytes
  4067 ;; Hardware stack levels used: 1
  4068 ;; Hardware stack levels required when called: 5
  4069 ;; This function calls:
  4070 ;;		___awdiv
  4071 ;;		___awmod
  4072 ;;		_clcd_putch
  4073 ;;		_read_external_eeprom
  4074 ;; This function is called by:
  4075 ;;		_display_menu
  4076 ;; This function uses a non-reentrant model
  4077 ;;
  4078                           
  4079                           	psect	text15
  4080   00184C                     __ptext15:
  4081                           	callstack 0
  4082   00184C                     _view_log:
  4083                           	callstack 22
  4084   00184C                     
  4085                           ;menu.c: 214:     char temp = read_external_eeprom(list_address[list_event]);
  4086   00184C  5048               	movf	_list_event^0,w,c
  4087   00184E  0D02               	mullw	2
  4088   001850  0E60               	movlw	low _list_address
  4089   001852  24F3               	addwf	243,w,c
  4090   001854  6ED9               	movwf	fsr2l,c
  4091   001856  0E00               	movlw	high _list_address
  4092   001858  20F4               	addwfc	prodh,w,c
  4093   00185A  6EDA               	movwf	fsr2h,c
  4094   00185C  50DF               	movf	indf2,w,c
  4095   00185E  EC8A  F015         	call	_read_external_eeprom
  4096   001862  6E17               	movwf	view_log@temp^0,c
  4097   001864                     
  4098                           ;menu.c: 216:     clcd_putch(((temp/10)+48),(0xC0 + (0)));
  4099   001864  0EC0               	movlw	192
  4100   001866  6E0F               	movwf	clcd_putch@addr^0,c
  4101   001868  C017  F007         	movff	view_log@temp,___awdiv@dividend
  4102   00186C  6A08               	clrf	(___awdiv@dividend+1)^0,c
  4103   00186E  0E00               	movlw	0
  4104   001870  6E0A               	movwf	(___awdiv@divisor+1)^0,c
  4105   001872  0E0A               	movlw	10
  4106   001874  6E09               	movwf	___awdiv@divisor^0,c
  4107   001876  EC79  F011         	call	___awdiv	;wreg free
  4108   00187A  5007               	movf	?___awdiv^0,w,c
  4109   00187C  0F30               	addlw	48
  4110   00187E  EC13  F016         	call	_clcd_putch
  4111   001882                     
  4112                           ;menu.c: 217:     clcd_putch(((temp%10)+48),(0xC0 + (1)));
  4113   001882  0EC1               	movlw	193
  4114   001884  6E0F               	movwf	clcd_putch@addr^0,c
  4115   001886  C017  F001         	movff	view_log@temp,___awmod@dividend
  4116   00188A  6A02               	clrf	(___awmod@dividend+1)^0,c
  4117   00188C  0E00               	movlw	0
  4118   00188E  6E04               	movwf	(___awmod@divisor+1)^0,c
  4119   001890  0E0A               	movlw	10
  4120   001892  6E03               	movwf	___awmod@divisor^0,c
  4121   001894  ECDB  F011         	call	___awmod	;wreg free
  4122   001898  5001               	movf	?___awmod^0,w,c
  4123   00189A  0F30               	addlw	48
  4124   00189C  EC13  F016         	call	_clcd_putch
  4125   0018A0                     
  4126                           ;menu.c: 219:     clcd_putch(':',(0xC0 + (2)));
  4127   0018A0  0EC2               	movlw	194
  4128   0018A2  6E0F               	movwf	clcd_putch@addr^0,c
  4129   0018A4  0E3A               	movlw	58
  4130   0018A6  EC13  F016         	call	_clcd_putch
  4131   0018AA                     
  4132                           ;menu.c: 221:     temp = read_external_eeprom(list_address[list_event]+1);
  4133   0018AA  5048               	movf	_list_event^0,w,c
  4134   0018AC  0D02               	mullw	2
  4135   0018AE  0E60               	movlw	low _list_address
  4136   0018B0  24F3               	addwf	243,w,c
  4137   0018B2  6ED9               	movwf	fsr2l,c
  4138   0018B4  0E00               	movlw	high _list_address
  4139   0018B6  20F4               	addwfc	prodh,w,c
  4140   0018B8  6EDA               	movwf	fsr2h,c
  4141   0018BA  50DF               	movf	indf2,w,c
  4142   0018BC  6E11               	movwf	??_view_log^0,c
  4143   0018BE  2811               	incf	??_view_log^0,w,c
  4144   0018C0  EC8A  F015         	call	_read_external_eeprom
  4145   0018C4  6E17               	movwf	view_log@temp^0,c
  4146   0018C6                     
  4147                           ;menu.c: 223:     clcd_putch((temp/10)+48,(0xC0 + (3)));
  4148   0018C6  0EC3               	movlw	195
  4149   0018C8  6E0F               	movwf	clcd_putch@addr^0,c
  4150   0018CA  C017  F007         	movff	view_log@temp,___awdiv@dividend
  4151   0018CE  6A08               	clrf	(___awdiv@dividend+1)^0,c
  4152   0018D0  0E00               	movlw	0
  4153   0018D2  6E0A               	movwf	(___awdiv@divisor+1)^0,c
  4154   0018D4  0E0A               	movlw	10
  4155   0018D6  6E09               	movwf	___awdiv@divisor^0,c
  4156   0018D8  EC79  F011         	call	___awdiv	;wreg free
  4157   0018DC  5007               	movf	?___awdiv^0,w,c
  4158   0018DE  0F30               	addlw	48
  4159   0018E0  EC13  F016         	call	_clcd_putch
  4160   0018E4                     
  4161                           ;menu.c: 224:     clcd_putch((temp%10)+48,(0xC0 + (4)));
  4162   0018E4  0EC4               	movlw	196
  4163   0018E6  6E0F               	movwf	clcd_putch@addr^0,c
  4164   0018E8  C017  F001         	movff	view_log@temp,___awmod@dividend
  4165   0018EC  6A02               	clrf	(___awmod@dividend+1)^0,c
  4166   0018EE  0E00               	movlw	0
  4167   0018F0  6E04               	movwf	(___awmod@divisor+1)^0,c
  4168   0018F2  0E0A               	movlw	10
  4169   0018F4  6E03               	movwf	___awmod@divisor^0,c
  4170   0018F6  ECDB  F011         	call	___awmod	;wreg free
  4171   0018FA  5001               	movf	?___awmod^0,w,c
  4172   0018FC  0F30               	addlw	48
  4173   0018FE  EC13  F016         	call	_clcd_putch
  4174                           
  4175                           ;menu.c: 226:     clcd_putch(':',(0xC0 + (5)));
  4176   001902  0EC5               	movlw	197
  4177   001904  6E0F               	movwf	clcd_putch@addr^0,c
  4178   001906  0E3A               	movlw	58
  4179   001908  EC13  F016         	call	_clcd_putch
  4180   00190C                     
  4181                           ;menu.c: 228:     temp = read_external_eeprom(list_address[list_event]+2);
  4182   00190C  5048               	movf	_list_event^0,w,c
  4183   00190E  0D02               	mullw	2
  4184   001910  0E60               	movlw	low _list_address
  4185   001912  24F3               	addwf	243,w,c
  4186   001914  6ED9               	movwf	fsr2l,c
  4187   001916  0E00               	movlw	high _list_address
  4188   001918  20F4               	addwfc	prodh,w,c
  4189   00191A  6EDA               	movwf	fsr2h,c
  4190   00191C  50DF               	movf	indf2,w,c
  4191   00191E  0F02               	addlw	2
  4192   001920  EC8A  F015         	call	_read_external_eeprom
  4193   001924  6E17               	movwf	view_log@temp^0,c
  4194   001926                     
  4195                           ;menu.c: 230:     clcd_putch((temp/10)+48,(0xC0 + (6)));
  4196   001926  0EC6               	movlw	198
  4197   001928  6E0F               	movwf	clcd_putch@addr^0,c
  4198   00192A  C017  F007         	movff	view_log@temp,___awdiv@dividend
  4199   00192E  6A08               	clrf	(___awdiv@dividend+1)^0,c
  4200   001930  0E00               	movlw	0
  4201   001932  6E0A               	movwf	(___awdiv@divisor+1)^0,c
  4202   001934  0E0A               	movlw	10
  4203   001936  6E09               	movwf	___awdiv@divisor^0,c
  4204   001938  EC79  F011         	call	___awdiv	;wreg free
  4205   00193C  5007               	movf	?___awdiv^0,w,c
  4206   00193E  0F30               	addlw	48
  4207   001940  EC13  F016         	call	_clcd_putch
  4208   001944                     
  4209                           ;menu.c: 231:     clcd_putch((temp%10)+48,(0xC0 + (7)));
  4210   001944  0EC7               	movlw	199
  4211   001946  6E0F               	movwf	clcd_putch@addr^0,c
  4212   001948  C017  F001         	movff	view_log@temp,___awmod@dividend
  4213   00194C  6A02               	clrf	(___awmod@dividend+1)^0,c
  4214   00194E  0E00               	movlw	0
  4215   001950  6E04               	movwf	(___awmod@divisor+1)^0,c
  4216   001952  0E0A               	movlw	10
  4217   001954  6E03               	movwf	___awmod@divisor^0,c
  4218   001956  ECDB  F011         	call	___awmod	;wreg free
  4219   00195A  5001               	movf	?___awmod^0,w,c
  4220   00195C  0F30               	addlw	48
  4221   00195E  EC13  F016         	call	_clcd_putch
  4222   001962                     
  4223                           ;menu.c: 233:     clcd_putch(' ',(0xC0 + (8)));
  4224   001962  0EC8               	movlw	200
  4225   001964  6E0F               	movwf	clcd_putch@addr^0,c
  4226   001966  0E20               	movlw	32
  4227   001968  EC13  F016         	call	_clcd_putch
  4228                           
  4229                           ;menu.c: 235:     temp = read_external_eeprom(list_address[list_event]+3);
  4230   00196C  5048               	movf	_list_event^0,w,c
  4231   00196E  0D02               	mullw	2
  4232   001970  0E60               	movlw	low _list_address
  4233   001972  24F3               	addwf	243,w,c
  4234   001974  6ED9               	movwf	fsr2l,c
  4235   001976  0E00               	movlw	high _list_address
  4236   001978  20F4               	addwfc	prodh,w,c
  4237   00197A  6EDA               	movwf	fsr2h,c
  4238   00197C  50DF               	movf	indf2,w,c
  4239   00197E  0F03               	addlw	3
  4240   001980  EC8A  F015         	call	_read_external_eeprom
  4241   001984  6E17               	movwf	view_log@temp^0,c
  4242   001986                     
  4243                           ;menu.c: 237:     clcd_putch(event[temp][0],(0xC0 + (9)));
  4244   001986  0EC9               	movlw	201
  4245   001988  6E0F               	movwf	clcd_putch@addr^0,c
  4246   00198A  5017               	movf	view_log@temp^0,w,c
  4247   00198C  0D02               	mullw	2
  4248   00198E  0E74               	movlw	low _event
  4249   001990  24F3               	addwf	243,w,c
  4250   001992  6ED9               	movwf	fsr2l,c
  4251   001994  0E00               	movlw	high _event
  4252   001996  20F4               	addwfc	prodh,w,c
  4253   001998  6EDA               	movwf	fsr2h,c
  4254   00199A  CFDE FFF6          	movff	postinc2,tblptrl
  4255   00199E  CFDD FFF7          	movff	postdec2,tblptrh
  4256   0019A2                     	if	0	;tblptru may be non-zero
  4257   0019A2                     	endif
  4258   0019A2                     	if	0	;tblptru may be non-zero
  4259   0019A2                     	endif
  4260   0019A2  0008               	tblrd		*
  4261   0019A4  50F5               	movf	tablat,w,c
  4262   0019A6  EC13  F016         	call	_clcd_putch
  4263   0019AA                     
  4264                           ;menu.c: 238:     clcd_putch(event[temp][1],(0xC0 + (10)));
  4265   0019AA  0ECA               	movlw	202
  4266   0019AC  6E0F               	movwf	clcd_putch@addr^0,c
  4267   0019AE  5017               	movf	view_log@temp^0,w,c
  4268   0019B0  0D02               	mullw	2
  4269   0019B2  0E74               	movlw	low _event
  4270   0019B4  24F3               	addwf	243,w,c
  4271   0019B6  6ED9               	movwf	fsr2l,c
  4272   0019B8  0E00               	movlw	high _event
  4273   0019BA  20F4               	addwfc	prodh,w,c
  4274   0019BC  6EDA               	movwf	fsr2h,c
  4275   0019BE  CFDE F011          	movff	postinc2,??_view_log
  4276   0019C2  CFDD F012          	movff	postdec2,??_view_log+1
  4277   0019C6  0E01               	movlw	1
  4278   0019C8  2611               	addwf	??_view_log^0,f,c
  4279   0019CA  0E00               	movlw	0
  4280   0019CC  2212               	addwfc	(??_view_log+1)^0,f,c
  4281   0019CE  C011  FFF6         	movff	??_view_log,tblptrl
  4282   0019D2  C012  FFF7         	movff	??_view_log+1,tblptrh
  4283   0019D6                     	if	0	;tblptru may be non-zero
  4284   0019D6                     	endif
  4285   0019D6                     	if	0	;tblptru may be non-zero
  4286   0019D6                     	endif
  4287   0019D6  0008               	tblrd		*
  4288   0019D8  50F5               	movf	tablat,w,c
  4289   0019DA  EC13  F016         	call	_clcd_putch
  4290   0019DE                     
  4291                           ;menu.c: 240:     clcd_putch(' ',(0xC0 + (11)));
  4292   0019DE  0ECB               	movlw	203
  4293   0019E0  6E0F               	movwf	clcd_putch@addr^0,c
  4294   0019E2  0E20               	movlw	32
  4295   0019E4  EC13  F016         	call	_clcd_putch
  4296   0019E8                     
  4297                           ;menu.c: 242:     temp = read_external_eeprom(list_address[list_event]+4);
  4298   0019E8  5048               	movf	_list_event^0,w,c
  4299   0019EA  0D02               	mullw	2
  4300   0019EC  0E60               	movlw	low _list_address
  4301   0019EE  24F3               	addwf	243,w,c
  4302   0019F0  6ED9               	movwf	fsr2l,c
  4303   0019F2  0E00               	movlw	high _list_address
  4304   0019F4  20F4               	addwfc	prodh,w,c
  4305   0019F6  6EDA               	movwf	fsr2h,c
  4306   0019F8  50DF               	movf	indf2,w,c
  4307   0019FA  0F04               	addlw	4
  4308   0019FC  EC8A  F015         	call	_read_external_eeprom
  4309   001A00  6E17               	movwf	view_log@temp^0,c
  4310   001A02                     
  4311                           ;menu.c: 244:     clcd_putch((temp/10)+48,(0xC0 + (12)));
  4312   001A02  0ECC               	movlw	204
  4313   001A04  6E0F               	movwf	clcd_putch@addr^0,c
  4314   001A06  C017  F007         	movff	view_log@temp,___awdiv@dividend
  4315   001A0A  6A08               	clrf	(___awdiv@dividend+1)^0,c
  4316   001A0C  0E00               	movlw	0
  4317   001A0E  6E0A               	movwf	(___awdiv@divisor+1)^0,c
  4318   001A10  0E0A               	movlw	10
  4319   001A12  6E09               	movwf	___awdiv@divisor^0,c
  4320   001A14  EC79  F011         	call	___awdiv	;wreg free
  4321   001A18  5007               	movf	?___awdiv^0,w,c
  4322   001A1A  0F30               	addlw	48
  4323   001A1C  EC13  F016         	call	_clcd_putch
  4324   001A20                     
  4325                           ;menu.c: 245:     clcd_putch((temp%10)+48,(0xC0 + (13)));
  4326   001A20  0ECD               	movlw	205
  4327   001A22  6E0F               	movwf	clcd_putch@addr^0,c
  4328   001A24  C017  F001         	movff	view_log@temp,___awmod@dividend
  4329   001A28  6A02               	clrf	(___awmod@dividend+1)^0,c
  4330   001A2A  0E00               	movlw	0
  4331   001A2C  6E04               	movwf	(___awmod@divisor+1)^0,c
  4332   001A2E  0E0A               	movlw	10
  4333   001A30  6E03               	movwf	___awmod@divisor^0,c
  4334   001A32  ECDB  F011         	call	___awmod	;wreg free
  4335   001A36  5001               	movf	?___awmod^0,w,c
  4336   001A38  0F30               	addlw	48
  4337   001A3A  EC13  F016         	call	_clcd_putch
  4338                           
  4339                           ;menu.c: 247:     clcd_putch(' ',(0xC0 + (14)));
  4340   001A3E  0ECE               	movlw	206
  4341   001A40  6E0F               	movwf	clcd_putch@addr^0,c
  4342   001A42  0E20               	movlw	32
  4343   001A44  EC13  F016         	call	_clcd_putch
  4344                           
  4345                           ;menu.c: 248:     clcd_putch(' ',(0xC0 + (15)));
  4346   001A48  0ECF               	movlw	207
  4347   001A4A  6E0F               	movwf	clcd_putch@addr^0,c
  4348   001A4C  0E20               	movlw	32
  4349   001A4E  EC13  F016         	call	_clcd_putch
  4350   001A52                     
  4351                           ;menu.c: 249:     for(long int i=0; i<20000; i++);
  4352   001A52  0E00               	movlw	0
  4353   001A54  6E13               	movwf	view_log@i^0,c
  4354   001A56  0E00               	movlw	0
  4355   001A58  6E14               	movwf	(view_log@i+1)^0,c
  4356   001A5A  0E00               	movlw	0
  4357   001A5C  6E15               	movwf	(view_log@i+2)^0,c
  4358   001A5E  0E00               	movlw	0
  4359   001A60  6E16               	movwf	(view_log@i+3)^0,c
  4360   001A62                     l3422:
  4361   001A62  0E01               	movlw	1
  4362   001A64  2613               	addwf	view_log@i^0,f,c
  4363   001A66  0E00               	movlw	0
  4364   001A68  2214               	addwfc	(view_log@i+1)^0,f,c
  4365   001A6A  2215               	addwfc	(view_log@i+2)^0,f,c
  4366   001A6C  2216               	addwfc	(view_log@i+3)^0,f,c
  4367   001A6E  BE16               	btfsc	(view_log@i+3)^0,7,c
  4368   001A70  EF46  F00D         	goto	u2561
  4369   001A74  5016               	movf	(view_log@i+3)^0,w,c
  4370   001A76  1015               	iorwf	(view_log@i+2)^0,w,c
  4371   001A78  E10B               	bnz	u2560
  4372   001A7A  0E20               	movlw	32
  4373   001A7C  5C13               	subwf	view_log@i^0,w,c
  4374   001A7E  0E4E               	movlw	78
  4375   001A80  5814               	subwfb	(view_log@i+1)^0,w,c
  4376   001A82  A0D8               	btfss	status,0,c
  4377   001A84  EF46  F00D         	goto	u2561
  4378   001A88  EF48  F00D         	goto	u2560
  4379   001A8C                     u2561:
  4380   001A8C  EF31  F00D         	goto	l3422
  4381   001A90                     u2560:
  4382   001A90  0012               	return		;funcret
  4383   001A92                     __end_of_view_log:
  4384                           	callstack 0
  4385                           
  4386 ;; *************** function _set_time *****************
  4387 ;; Defined at:
  4388 ;;		line 360 in file "menu.c"
  4389 ;; Parameters:    Size  Location     Type
  4390 ;;		None
  4391 ;; Auto vars:     Size  Location     Type
  4392 ;;		None
  4393 ;; Return value:  Size  Location     Type
  4394 ;;                  1    wreg      void 
  4395 ;; Registers used:
  4396 ;;		wreg, fsr0l, fsr0h, fsr2l, fsr2h, status,2, status,0, tblptrl, tblptrh, tblptru, prodl, prodh, cstack
  4397 ;; Tracked objects:
  4398 ;;		On entry : 0/0
  4399 ;;		On exit  : 0/0
  4400 ;;		Unchanged: 0/0
  4401 ;; Data sizes:     COMRAM   BANK0   BANK1   BANK2   BANK3   BANK4   BANK5
  4402 ;;      Params:         0       0       0       0       0       0       0
  4403 ;;      Locals:         0       0       0       0       0       0       0
  4404 ;;      Temps:          4       0       0       0       0       0       0
  4405 ;;      Totals:         4       0       0       0       0       0       0
  4406 ;;Total ram usage:        4 bytes
  4407 ;; Hardware stack levels used: 1
  4408 ;; Hardware stack levels required when called: 4
  4409 ;; This function calls:
  4410 ;;		___awdiv
  4411 ;;		___awmod
  4412 ;;		_clcd_print
  4413 ;;		_clcd_putch
  4414 ;;		_read_switches
  4415 ;;		_strcpy
  4416 ;;		_write_ds1307
  4417 ;; This function is called by:
  4418 ;;		_display_menu
  4419 ;; This function uses a non-reentrant model
  4420 ;;
  4421                           
  4422                           	psect	text16
  4423   000012                     __ptext16:
  4424                           	callstack 0
  4425   000012                     _set_time:
  4426                           	callstack 23
  4427   000012                     
  4428                           ;menu.c: 362:     clcd_print("    SET TIME    ",(0x80 + (0)));
  4429   000012  0E51               	movlw	low STR_28
  4430   000014  6E03               	movwf	clcd_print@data^0,c
  4431   000016  0E2E               	movlw	high STR_28
  4432   000018  6E04               	movwf	(clcd_print@data+1)^0,c
  4433   00001A  0E80               	movlw	128
  4434   00001C  6E05               	movwf	clcd_print@addr^0,c
  4435   00001E  ECAF  F013         	call	_clcd_print	;wreg free
  4436                           
  4437                           ;menu.c: 363:     clcd_print("    ",(0xC0 + (0)));
  4438   000022  0EC6               	movlw	low (STR_10+8)
  4439   000024  6E03               	movwf	clcd_print@data^0,c
  4440   000026  0E2F               	movlw	high (STR_10+8)
  4441   000028  6E04               	movwf	(clcd_print@data+1)^0,c
  4442   00002A  0EC0               	movlw	192
  4443   00002C  6E05               	movwf	clcd_print@addr^0,c
  4444   00002E  ECAF  F013         	call	_clcd_print	;wreg free
  4445                           
  4446                           ;menu.c: 364:     clcd_print("    ",(0xC0 + (12)));
  4447   000032  0EC6               	movlw	low (STR_10+8)
  4448   000034  6E03               	movwf	clcd_print@data^0,c
  4449   000036  0E2F               	movlw	high (STR_10+8)
  4450   000038  6E04               	movwf	(clcd_print@data+1)^0,c
  4451   00003A  0ECC               	movlw	204
  4452   00003C  6E05               	movwf	clcd_print@addr^0,c
  4453   00003E  ECAF  F013         	call	_clcd_print	;wreg free
  4454   000042                     
  4455                           ;menu.c: 367:     write_ds1307(0x00,0x80);
  4456   000042  0E80               	movlw	128
  4457   000044  6E02               	movwf	write_ds1307@data^0,c
  4458   000046  0E00               	movlw	0
  4459   000048  ECF8  F015         	call	_write_ds1307
  4460   00004C                     
  4461                           ;menu.c: 369:     static unsigned char feild_flag=0,temp_time,once=1;;menu.c: 370:     s
      +                          tatic unsigned long int delay=0,delay2=0;;menu.c: 372:     if(once)
  4462   00004C  5055               	movf	set_time@once^0,w,c
  4463   00004E  B4D8               	btfsc	status,2,c
  4464   000050  EF2C  F000         	goto	u2591
  4465   000054  EF2E  F000         	goto	u2590
  4466   000058                     u2591:
  4467   000058  EF31  F000         	goto	l3474
  4468   00005C                     u2590:
  4469   00005C                     
  4470                           ;menu.c: 373:     {;menu.c: 374:         once = 0;
  4471   00005C  0E00               	movlw	0
  4472   00005E  6E55               	movwf	set_time@once^0,c
  4473   000060                     
  4474                           ;menu.c: 375:         TMR0IE = 1;
  4475   000060  8AF2               	bsf	4082,5,c	;volatile
  4476   000062                     l3474:
  4477                           
  4478                           ;menu.c: 379:     static unsigned char time_key;;menu.c: 380:     time_key = read_switch
      +                          es(0);
  4479   000062  0E00               	movlw	0
  4480   000064  EC3E  F013         	call	_read_switches
  4481   000068  6E43               	movwf	set_time@time_key^0,c
  4482   00006A                     
  4483                           ;menu.c: 382:     if(time_key == 0xFF && (delay2 > 0) )
  4484   00006A  2843               	incf	set_time@time_key^0,w,c
  4485   00006C  A4D8               	btfss	status,2,c
  4486   00006E  EF3B  F000         	goto	u2601
  4487   000072  EF3D  F000         	goto	u2600
  4488   000076                     u2601:
  4489   000076  EF5E  F000         	goto	l446
  4490   00007A                     u2600:
  4491   00007A  0100               	movlb	0	; () banked
  4492   00007C  51B0               	movf	set_time@delay2& (0+255),w,b
  4493   00007E  11B1               	iorwf	(set_time@delay2+1)& (0+255),w,b
  4494   000080  11B2               	iorwf	(set_time@delay2+2)& (0+255),w,b
  4495   000082  11B3               	iorwf	(set_time@delay2+3)& (0+255),w,b
  4496   000084  B4D8               	btfsc	status,2,c
  4497   000086  EF47  F000         	goto	u2611
  4498   00008A  EF49  F000         	goto	u2610
  4499   00008E                     u2611:
  4500   00008E  EF5E  F000         	goto	l446
  4501   000092                     u2610:
  4502   000092                     
  4503                           ; BSR set to: 0
  4504                           ;menu.c: 383:     {;menu.c: 384:             if(feild_flag <2)
  4505   000092  0E02               	movlw	2
  4506   000094  6045               	cpfslt	set_time@feild_flag^0,c
  4507   000096  EF4F  F000         	goto	u2621
  4508   00009A  EF51  F000         	goto	u2620
  4509   00009E                     u2621:
  4510   00009E  EF54  F000         	goto	l3484
  4511   0000A2                     u2620:
  4512   0000A2                     
  4513                           ; BSR set to: 0
  4514                           ;menu.c: 385:                 feild_flag++;
  4515   0000A2  2A45               	incf	set_time@feild_flag^0,f,c
  4516   0000A4  EF56  F000         	goto	l448
  4517   0000A8                     l3484:
  4518                           
  4519                           ; BSR set to: 0
  4520                           ;menu.c: 387:                 feild_flag = 0;
  4521   0000A8  0E00               	movlw	0
  4522   0000AA  6E45               	movwf	set_time@feild_flag^0,c
  4523   0000AC                     l448:
  4524                           
  4525                           ; BSR set to: 0
  4526                           ;menu.c: 389:             delay2 = 0;
  4527   0000AC  0E00               	movlw	0
  4528   0000AE  6FB0               	movwf	set_time@delay2& (0+255),b
  4529   0000B0  0E00               	movlw	0
  4530   0000B2  6FB1               	movwf	(set_time@delay2+1)& (0+255),b
  4531   0000B4  0E00               	movlw	0
  4532   0000B6  6FB2               	movwf	(set_time@delay2+2)& (0+255),b
  4533   0000B8  0E00               	movlw	0
  4534   0000BA  6FB3               	movwf	(set_time@delay2+3)& (0+255),b
  4535   0000BC                     l446:
  4536                           
  4537                           ;menu.c: 392:     if(feild_flag == 0)
  4538   0000BC  5045               	movf	set_time@feild_flag^0,w,c
  4539   0000BE  A4D8               	btfss	status,2,c
  4540   0000C0  EF64  F000         	goto	u2631
  4541   0000C4  EF66  F000         	goto	u2630
  4542   0000C8                     u2631:
  4543   0000C8  EFF3  F000         	goto	l3506
  4544   0000CC                     u2630:
  4545   0000CC                     
  4546                           ;menu.c: 393:         {;menu.c: 394:             if(time_key == 0xFF && delay > 0)
  4547   0000CC  2843               	incf	set_time@time_key^0,w,c
  4548   0000CE  A4D8               	btfss	status,2,c
  4549   0000D0  EF6C  F000         	goto	u2641
  4550   0000D4  EF6E  F000         	goto	u2640
  4551   0000D8                     u2641:
  4552   0000D8  EFAF  F000         	goto	l450
  4553   0000DC                     u2640:
  4554   0000DC  5035               	movf	set_time@delay^0,w,c
  4555   0000DE  1036               	iorwf	(set_time@delay+1)^0,w,c
  4556   0000E0  1037               	iorwf	(set_time@delay+2)^0,w,c
  4557   0000E2  1038               	iorwf	(set_time@delay+3)^0,w,c
  4558   0000E4  B4D8               	btfsc	status,2,c
  4559   0000E6  EF77  F000         	goto	u2651
  4560   0000EA  EF79  F000         	goto	u2650
  4561   0000EE                     u2651:
  4562   0000EE  EFAF  F000         	goto	l450
  4563   0000F2                     u2650:
  4564   0000F2                     
  4565                           ;menu.c: 395:             {;menu.c: 396:                 temp_time = ((time[6]-48)*10)+(
      +                          time[7]-48);
  4566   0000F2  0100               	movlb	0	; () banked
  4567   0000F4  5196               	movf	(_time+6)& (0+255),w,b
  4568   0000F6  0D0A               	mullw	10
  4569   0000F8  50F3               	movf	243,w,c
  4570   0000FA  2597               	addwf	(_time+7)& (0+255),w,b
  4571   0000FC  0FF0               	addlw	240
  4572   0000FE  6E44               	movwf	set_time@temp_time^0,c
  4573   000100                     
  4574                           ; BSR set to: 0
  4575                           ;menu.c: 397:                 if(temp_time < 59)
  4576   000100  0E3B               	movlw	59
  4577   000102  6044               	cpfslt	set_time@temp_time^0,c
  4578   000104  EF86  F000         	goto	u2661
  4579   000108  EF88  F000         	goto	u2660
  4580   00010C                     u2661:
  4581   00010C  EF8B  F000         	goto	l3496
  4582   000110                     u2660:
  4583   000110                     
  4584                           ; BSR set to: 0
  4585                           ;menu.c: 398:                     temp_time++;
  4586   000110  2A44               	incf	set_time@temp_time^0,f,c
  4587   000112  EF8D  F000         	goto	l3498
  4588   000116                     l3496:
  4589                           
  4590                           ; BSR set to: 0
  4591                           ;menu.c: 400:                     temp_time = 0;
  4592   000116  0E00               	movlw	0
  4593   000118  6E44               	movwf	set_time@temp_time^0,c
  4594   00011A                     l3498:
  4595                           
  4596                           ; BSR set to: 0
  4597                           ;menu.c: 402:                 time[6] = (temp_time/10)+48;
  4598   00011A  C044  F007         	movff	set_time@temp_time,___awdiv@dividend
  4599   00011E  6A08               	clrf	(___awdiv@dividend+1)^0,c
  4600   000120  0E00               	movlw	0
  4601   000122  6E0A               	movwf	(___awdiv@divisor+1)^0,c
  4602   000124  0E0A               	movlw	10
  4603   000126  6E09               	movwf	___awdiv@divisor^0,c
  4604   000128  EC79  F011         	call	___awdiv	;wreg free
  4605   00012C  5007               	movf	?___awdiv^0,w,c
  4606   00012E  0F30               	addlw	48
  4607   000130  0100               	movlb	0	; () banked
  4608   000132  6F96               	movwf	(_time+6)& (0+255),b
  4609   000134                     
  4610                           ; BSR set to: 0
  4611                           ;menu.c: 403:                 time[7] = (temp_time%10)+48;
  4612   000134  C044  F001         	movff	set_time@temp_time,___awmod@dividend
  4613   000138  6A02               	clrf	(___awmod@dividend+1)^0,c
  4614   00013A  0E00               	movlw	0
  4615   00013C  6E04               	movwf	(___awmod@divisor+1)^0,c
  4616   00013E  0E0A               	movlw	10
  4617   000140  6E03               	movwf	___awmod@divisor^0,c
  4618   000142  ECDB  F011         	call	___awmod	;wreg free
  4619   000146  5001               	movf	?___awmod^0,w,c
  4620   000148  0F30               	addlw	48
  4621   00014A  0100               	movlb	0	; () banked
  4622   00014C  6F97               	movwf	(_time+7)& (0+255),b
  4623                           
  4624                           ;menu.c: 404:                 delay = 0;
  4625   00014E  0E00               	movlw	0
  4626   000150  6E35               	movwf	set_time@delay^0,c
  4627   000152  0E00               	movlw	0
  4628   000154  6E36               	movwf	(set_time@delay+1)^0,c
  4629   000156  0E00               	movlw	0
  4630   000158  6E37               	movwf	(set_time@delay+2)^0,c
  4631   00015A  0E00               	movlw	0
  4632   00015C  6E38               	movwf	(set_time@delay+3)^0,c
  4633   00015E                     l450:
  4634                           
  4635                           ;menu.c: 407:             if(flag_1_sec)
  4636   00015E  5058               	movf	_flag_1_sec^0,w,c
  4637   000160  B4D8               	btfsc	status,2,c
  4638   000162  EFB5  F000         	goto	u2671
  4639   000166  EFB7  F000         	goto	u2670
  4640   00016A                     u2671:
  4641   00016A  EFC3  F000         	goto	l3504
  4642   00016E                     u2670:
  4643   00016E                     
  4644                           ;menu.c: 408:             {;menu.c: 409:                 clcd_putch(' ',(0xC0 + (10)));
  4645   00016E  0ECA               	movlw	202
  4646   000170  6E0F               	movwf	clcd_putch@addr^0,c
  4647   000172  0E20               	movlw	32
  4648   000174  EC13  F016         	call	_clcd_putch
  4649                           
  4650                           ;menu.c: 410:                 clcd_putch(' ',(0xC0 + (11)));
  4651   000178  0ECB               	movlw	203
  4652   00017A  6E0F               	movwf	clcd_putch@addr^0,c
  4653   00017C  0E20               	movlw	32
  4654   00017E  EC13  F016         	call	_clcd_putch
  4655                           
  4656                           ;menu.c: 411:             }
  4657   000182  EFCF  F000         	goto	l454
  4658   000186                     l3504:
  4659                           
  4660                           ;menu.c: 413:             {;menu.c: 414:                 clcd_putch(time[6],(0xC0 + (10)
      +                          ));
  4661   000186  0ECA               	movlw	202
  4662   000188  6E0F               	movwf	clcd_putch@addr^0,c
  4663   00018A  0100               	movlb	0	; () banked
  4664   00018C  5196               	movf	(_time+6)& (0+255),w,b
  4665   00018E  EC13  F016         	call	_clcd_putch
  4666                           
  4667                           ;menu.c: 415:                 clcd_putch(time[7],(0xC0 + (11)));
  4668   000192  0ECB               	movlw	203
  4669   000194  6E0F               	movwf	clcd_putch@addr^0,c
  4670   000196  0100               	movlb	0	; () banked
  4671   000198  5197               	movf	(_time+7)& (0+255),w,b
  4672   00019A  EC13  F016         	call	_clcd_putch
  4673   00019E                     l454:
  4674                           
  4675                           ;menu.c: 417:                 clcd_putch(':',(0xC0 + (9)));
  4676   00019E  0EC9               	movlw	201
  4677   0001A0  6E0F               	movwf	clcd_putch@addr^0,c
  4678   0001A2  0E3A               	movlw	58
  4679   0001A4  EC13  F016         	call	_clcd_putch
  4680                           
  4681                           ;menu.c: 420:                 clcd_putch(time[3],(0xC0 + (7)));
  4682   0001A8  0EC7               	movlw	199
  4683   0001AA  6E0F               	movwf	clcd_putch@addr^0,c
  4684   0001AC  0100               	movlb	0	; () banked
  4685   0001AE  5193               	movf	(_time+3)& (0+255),w,b
  4686   0001B0  EC13  F016         	call	_clcd_putch
  4687                           
  4688                           ;menu.c: 421:                 clcd_putch(time[4],(0xC0 + (8)));
  4689   0001B4  0EC8               	movlw	200
  4690   0001B6  6E0F               	movwf	clcd_putch@addr^0,c
  4691   0001B8  0100               	movlb	0	; () banked
  4692   0001BA  5194               	movf	(_time+4)& (0+255),w,b
  4693   0001BC  EC13  F016         	call	_clcd_putch
  4694                           
  4695                           ;menu.c: 423:                 clcd_putch(':',(0xC0 + (6)));
  4696   0001C0  0EC6               	movlw	198
  4697   0001C2  6E0F               	movwf	clcd_putch@addr^0,c
  4698   0001C4  0E3A               	movlw	58
  4699   0001C6  EC13  F016         	call	_clcd_putch
  4700                           
  4701                           ;menu.c: 425:                 clcd_putch(time[0],(0xC0 + (4)));
  4702   0001CA  0EC4               	movlw	196
  4703   0001CC  6E0F               	movwf	clcd_putch@addr^0,c
  4704   0001CE  0100               	movlb	0	; () banked
  4705   0001D0  5190               	movf	_time& (0+255),w,b
  4706   0001D2  EC13  F016         	call	_clcd_putch
  4707                           
  4708                           ;menu.c: 426:                 clcd_putch(time[1],(0xC0 + (5)));
  4709   0001D6  0EC5               	movlw	197
  4710   0001D8  6E0F               	movwf	clcd_putch@addr^0,c
  4711   0001DA  0100               	movlb	0	; () banked
  4712   0001DC  5191               	movf	(_time+1)& (0+255),w,b
  4713   0001DE  EC13  F016         	call	_clcd_putch
  4714                           
  4715                           ;menu.c: 427:         }
  4716   0001E2  EF1C  F002         	goto	l3570
  4717   0001E6                     l3506:
  4718   0001E6  0445               	decf	set_time@feild_flag^0,w,c
  4719   0001E8  A4D8               	btfss	status,2,c
  4720   0001EA  EFF9  F000         	goto	u2681
  4721   0001EE  EFFB  F000         	goto	u2680
  4722   0001F2                     u2681:
  4723   0001F2  EF88  F001         	goto	l3536
  4724   0001F6                     u2680:
  4725   0001F6                     
  4726                           ;menu.c: 429:         {;menu.c: 430:             if(time_key == 0xFF && delay > 0)
  4727   0001F6  2843               	incf	set_time@time_key^0,w,c
  4728   0001F8  A4D8               	btfss	status,2,c
  4729   0001FA  EF01  F001         	goto	u2691
  4730   0001FE  EF03  F001         	goto	u2690
  4731   000202                     u2691:
  4732   000202  EF44  F001         	goto	l3524
  4733   000206                     u2690:
  4734   000206  5035               	movf	set_time@delay^0,w,c
  4735   000208  1036               	iorwf	(set_time@delay+1)^0,w,c
  4736   00020A  1037               	iorwf	(set_time@delay+2)^0,w,c
  4737   00020C  1038               	iorwf	(set_time@delay+3)^0,w,c
  4738   00020E  B4D8               	btfsc	status,2,c
  4739   000210  EF0C  F001         	goto	u2701
  4740   000214  EF0E  F001         	goto	u2700
  4741   000218                     u2701:
  4742   000218  EF44  F001         	goto	l3524
  4743   00021C                     u2700:
  4744   00021C                     
  4745                           ;menu.c: 431:             {;menu.c: 432:                 temp_time = ((time[3]-48)*10)+(
      +                          time[4]-48);
  4746   00021C  0100               	movlb	0	; () banked
  4747   00021E  5193               	movf	(_time+3)& (0+255),w,b
  4748   000220  0D0A               	mullw	10
  4749   000222  50F3               	movf	243,w,c
  4750   000224  2594               	addwf	(_time+4)& (0+255),w,b
  4751   000226  0FF0               	addlw	240
  4752   000228  6E44               	movwf	set_time@temp_time^0,c
  4753   00022A                     
  4754                           ; BSR set to: 0
  4755                           ;menu.c: 433:                 if(temp_time < 59)
  4756   00022A  0E3B               	movlw	59
  4757   00022C  6044               	cpfslt	set_time@temp_time^0,c
  4758   00022E  EF1B  F001         	goto	u2711
  4759   000232  EF1D  F001         	goto	u2710
  4760   000236                     u2711:
  4761   000236  EF20  F001         	goto	l3518
  4762   00023A                     u2710:
  4763   00023A                     
  4764                           ; BSR set to: 0
  4765                           ;menu.c: 434:                     temp_time++;
  4766   00023A  2A44               	incf	set_time@temp_time^0,f,c
  4767   00023C  EF22  F001         	goto	l3520
  4768   000240                     l3518:
  4769                           
  4770                           ; BSR set to: 0
  4771                           ;menu.c: 436:                     temp_time = 0;
  4772   000240  0E00               	movlw	0
  4773   000242  6E44               	movwf	set_time@temp_time^0,c
  4774   000244                     l3520:
  4775                           
  4776                           ; BSR set to: 0
  4777                           ;menu.c: 438:                 time[3] = (temp_time/10)+48;
  4778   000244  C044  F007         	movff	set_time@temp_time,___awdiv@dividend
  4779   000248  6A08               	clrf	(___awdiv@dividend+1)^0,c
  4780   00024A  0E00               	movlw	0
  4781   00024C  6E0A               	movwf	(___awdiv@divisor+1)^0,c
  4782   00024E  0E0A               	movlw	10
  4783   000250  6E09               	movwf	___awdiv@divisor^0,c
  4784   000252  EC79  F011         	call	___awdiv	;wreg free
  4785   000256  5007               	movf	?___awdiv^0,w,c
  4786   000258  0F30               	addlw	48
  4787   00025A  0100               	movlb	0	; () banked
  4788   00025C  6F93               	movwf	(_time+3)& (0+255),b
  4789   00025E                     
  4790                           ; BSR set to: 0
  4791                           ;menu.c: 439:                 time[4] = (temp_time%10)+48;
  4792   00025E  C044  F001         	movff	set_time@temp_time,___awmod@dividend
  4793   000262  6A02               	clrf	(___awmod@dividend+1)^0,c
  4794   000264  0E00               	movlw	0
  4795   000266  6E04               	movwf	(___awmod@divisor+1)^0,c
  4796   000268  0E0A               	movlw	10
  4797   00026A  6E03               	movwf	___awmod@divisor^0,c
  4798   00026C  ECDB  F011         	call	___awmod	;wreg free
  4799   000270  5001               	movf	?___awmod^0,w,c
  4800   000272  0F30               	addlw	48
  4801   000274  0100               	movlb	0	; () banked
  4802   000276  6F94               	movwf	(_time+4)& (0+255),b
  4803                           
  4804                           ;menu.c: 440:                 delay = 0;
  4805   000278  0E00               	movlw	0
  4806   00027A  6E35               	movwf	set_time@delay^0,c
  4807   00027C  0E00               	movlw	0
  4808   00027E  6E36               	movwf	(set_time@delay+1)^0,c
  4809   000280  0E00               	movlw	0
  4810   000282  6E37               	movwf	(set_time@delay+2)^0,c
  4811   000284  0E00               	movlw	0
  4812   000286  6E38               	movwf	(set_time@delay+3)^0,c
  4813   000288                     l3524:
  4814                           
  4815                           ;menu.c: 444:                 clcd_putch(time[6],(0xC0 + (10)));
  4816   000288  0ECA               	movlw	202
  4817   00028A  6E0F               	movwf	clcd_putch@addr^0,c
  4818   00028C  0100               	movlb	0	; () banked
  4819   00028E  5196               	movf	(_time+6)& (0+255),w,b
  4820   000290  EC13  F016         	call	_clcd_putch
  4821   000294                     
  4822                           ;menu.c: 445:                 clcd_putch(time[7],(0xC0 + (11)));
  4823   000294  0ECB               	movlw	203
  4824   000296  6E0F               	movwf	clcd_putch@addr^0,c
  4825   000298  0100               	movlb	0	; () banked
  4826   00029A  5197               	movf	(_time+7)& (0+255),w,b
  4827   00029C  EC13  F016         	call	_clcd_putch
  4828   0002A0                     
  4829                           ;menu.c: 447:                 clcd_putch(':',(0xC0 + (9)));
  4830   0002A0  0EC9               	movlw	201
  4831   0002A2  6E0F               	movwf	clcd_putch@addr^0,c
  4832   0002A4  0E3A               	movlw	58
  4833   0002A6  EC13  F016         	call	_clcd_putch
  4834   0002AA                     
  4835                           ;menu.c: 449:             if(flag_1_sec)
  4836   0002AA  5058               	movf	_flag_1_sec^0,w,c
  4837   0002AC  B4D8               	btfsc	status,2,c
  4838   0002AE  EF5B  F001         	goto	u2721
  4839   0002B2  EF5D  F001         	goto	u2720
  4840   0002B6                     u2721:
  4841   0002B6  EF69  F001         	goto	l3534
  4842   0002BA                     u2720:
  4843   0002BA                     
  4844                           ;menu.c: 450:             {;menu.c: 451:                 clcd_putch(' ',(0xC0 + (7)));
  4845   0002BA  0EC7               	movlw	199
  4846   0002BC  6E0F               	movwf	clcd_putch@addr^0,c
  4847   0002BE  0E20               	movlw	32
  4848   0002C0  EC13  F016         	call	_clcd_putch
  4849                           
  4850                           ;menu.c: 452:                 clcd_putch(' ',(0xC0 + (8)));
  4851   0002C4  0EC8               	movlw	200
  4852   0002C6  6E0F               	movwf	clcd_putch@addr^0,c
  4853   0002C8  0E20               	movlw	32
  4854   0002CA  EC13  F016         	call	_clcd_putch
  4855                           
  4856                           ;menu.c: 453:             }
  4857   0002CE  EF75  F001         	goto	l461
  4858   0002D2                     l3534:
  4859                           
  4860                           ;menu.c: 455:             {;menu.c: 456:                 clcd_putch(time[3],(0xC0 + (7))
      +                          );
  4861   0002D2  0EC7               	movlw	199
  4862   0002D4  6E0F               	movwf	clcd_putch@addr^0,c
  4863   0002D6  0100               	movlb	0	; () banked
  4864   0002D8  5193               	movf	(_time+3)& (0+255),w,b
  4865   0002DA  EC13  F016         	call	_clcd_putch
  4866                           
  4867                           ;menu.c: 457:                 clcd_putch(time[4],(0xC0 + (8)));
  4868   0002DE  0EC8               	movlw	200
  4869   0002E0  6E0F               	movwf	clcd_putch@addr^0,c
  4870   0002E2  0100               	movlb	0	; () banked
  4871   0002E4  5194               	movf	(_time+4)& (0+255),w,b
  4872   0002E6  EC13  F016         	call	_clcd_putch
  4873   0002EA                     l461:
  4874                           
  4875                           ;menu.c: 460:                 clcd_putch(':',(0xC0 + (6)));
  4876   0002EA  0EC6               	movlw	198
  4877   0002EC  6E0F               	movwf	clcd_putch@addr^0,c
  4878   0002EE  0E3A               	movlw	58
  4879   0002F0  EC13  F016         	call	_clcd_putch
  4880                           
  4881                           ;menu.c: 463:                 clcd_putch(time[0],(0xC0 + (4)));
  4882   0002F4  0EC4               	movlw	196
  4883   0002F6  6E0F               	movwf	clcd_putch@addr^0,c
  4884   0002F8  0100               	movlb	0	; () banked
  4885   0002FA  5190               	movf	_time& (0+255),w,b
  4886   0002FC  EC13  F016         	call	_clcd_putch
  4887                           
  4888                           ;menu.c: 464:                 clcd_putch(time[1],(0xC0 + (5)));
  4889   000300  0EC5               	movlw	197
  4890   000302  6E0F               	movwf	clcd_putch@addr^0,c
  4891   000304  0100               	movlb	0	; () banked
  4892   000306  5191               	movf	(_time+1)& (0+255),w,b
  4893   000308  EC13  F016         	call	_clcd_putch
  4894                           
  4895                           ;menu.c: 465:         }
  4896   00030C  EF1C  F002         	goto	l3570
  4897   000310                     l3536:
  4898   000310  0E02               	movlw	2
  4899   000312  1845               	xorwf	set_time@feild_flag^0,w,c
  4900   000314  A4D8               	btfss	status,2,c
  4901   000316  EF8F  F001         	goto	u2731
  4902   00031A  EF91  F001         	goto	u2730
  4903   00031E                     u2731:
  4904   00031E  EF1C  F002         	goto	l3570
  4905   000322                     u2730:
  4906   000322                     
  4907                           ;menu.c: 467:         {;menu.c: 469:             if(time_key == 0xFF && delay > 0)
  4908   000322  2843               	incf	set_time@time_key^0,w,c
  4909   000324  A4D8               	btfss	status,2,c
  4910   000326  EF97  F001         	goto	u2741
  4911   00032A  EF99  F001         	goto	u2740
  4912   00032E                     u2741:
  4913   00032E  EFDA  F001         	goto	l3554
  4914   000332                     u2740:
  4915   000332  5035               	movf	set_time@delay^0,w,c
  4916   000334  1036               	iorwf	(set_time@delay+1)^0,w,c
  4917   000336  1037               	iorwf	(set_time@delay+2)^0,w,c
  4918   000338  1038               	iorwf	(set_time@delay+3)^0,w,c
  4919   00033A  B4D8               	btfsc	status,2,c
  4920   00033C  EFA2  F001         	goto	u2751
  4921   000340  EFA4  F001         	goto	u2750
  4922   000344                     u2751:
  4923   000344  EFDA  F001         	goto	l3554
  4924   000348                     u2750:
  4925   000348                     
  4926                           ;menu.c: 470:             {;menu.c: 472:                 temp_time = ((time[0]-48)*10)+(
      +                          time[1]-48);
  4927   000348  0100               	movlb	0	; () banked
  4928   00034A  5190               	movf	_time& (0+255),w,b
  4929   00034C  0D0A               	mullw	10
  4930   00034E  50F3               	movf	243,w,c
  4931   000350  2591               	addwf	(_time+1)& (0+255),w,b
  4932   000352  0FF0               	addlw	240
  4933   000354  6E44               	movwf	set_time@temp_time^0,c
  4934   000356                     
  4935                           ; BSR set to: 0
  4936                           ;menu.c: 473:                 if(temp_time < 23)
  4937   000356  0E17               	movlw	23
  4938   000358  6044               	cpfslt	set_time@temp_time^0,c
  4939   00035A  EFB1  F001         	goto	u2761
  4940   00035E  EFB3  F001         	goto	u2760
  4941   000362                     u2761:
  4942   000362  EFB6  F001         	goto	l3548
  4943   000366                     u2760:
  4944   000366                     
  4945                           ; BSR set to: 0
  4946                           ;menu.c: 474:                     temp_time++;
  4947   000366  2A44               	incf	set_time@temp_time^0,f,c
  4948   000368  EFB8  F001         	goto	l3550
  4949   00036C                     l3548:
  4950                           
  4951                           ; BSR set to: 0
  4952                           ;menu.c: 476:                     temp_time = 0;
  4953   00036C  0E00               	movlw	0
  4954   00036E  6E44               	movwf	set_time@temp_time^0,c
  4955   000370                     l3550:
  4956                           
  4957                           ; BSR set to: 0
  4958                           ;menu.c: 478:                 time[0] = (temp_time/10)+48;
  4959   000370  C044  F007         	movff	set_time@temp_time,___awdiv@dividend
  4960   000374  6A08               	clrf	(___awdiv@dividend+1)^0,c
  4961   000376  0E00               	movlw	0
  4962   000378  6E0A               	movwf	(___awdiv@divisor+1)^0,c
  4963   00037A  0E0A               	movlw	10
  4964   00037C  6E09               	movwf	___awdiv@divisor^0,c
  4965   00037E  EC79  F011         	call	___awdiv	;wreg free
  4966   000382  5007               	movf	?___awdiv^0,w,c
  4967   000384  0F30               	addlw	48
  4968   000386  0100               	movlb	0	; () banked
  4969   000388  6F90               	movwf	_time& (0+255),b
  4970   00038A                     
  4971                           ; BSR set to: 0
  4972                           ;menu.c: 479:                 time[1] = (temp_time%10)+48;
  4973   00038A  C044  F001         	movff	set_time@temp_time,___awmod@dividend
  4974   00038E  6A02               	clrf	(___awmod@dividend+1)^0,c
  4975   000390  0E00               	movlw	0
  4976   000392  6E04               	movwf	(___awmod@divisor+1)^0,c
  4977   000394  0E0A               	movlw	10
  4978   000396  6E03               	movwf	___awmod@divisor^0,c
  4979   000398  ECDB  F011         	call	___awmod	;wreg free
  4980   00039C  5001               	movf	?___awmod^0,w,c
  4981   00039E  0F30               	addlw	48
  4982   0003A0  0100               	movlb	0	; () banked
  4983   0003A2  6F91               	movwf	(_time+1)& (0+255),b
  4984                           
  4985                           ;menu.c: 480:                 delay=0;
  4986   0003A4  0E00               	movlw	0
  4987   0003A6  6E35               	movwf	set_time@delay^0,c
  4988   0003A8  0E00               	movlw	0
  4989   0003AA  6E36               	movwf	(set_time@delay+1)^0,c
  4990   0003AC  0E00               	movlw	0
  4991   0003AE  6E37               	movwf	(set_time@delay+2)^0,c
  4992   0003B0  0E00               	movlw	0
  4993   0003B2  6E38               	movwf	(set_time@delay+3)^0,c
  4994   0003B4                     l3554:
  4995                           
  4996                           ;menu.c: 483:                 clcd_putch(time[6],(0xC0 + (10)));
  4997   0003B4  0ECA               	movlw	202
  4998   0003B6  6E0F               	movwf	clcd_putch@addr^0,c
  4999   0003B8  0100               	movlb	0	; () banked
  5000   0003BA  5196               	movf	(_time+6)& (0+255),w,b
  5001   0003BC  EC13  F016         	call	_clcd_putch
  5002   0003C0                     
  5003                           ;menu.c: 484:                 clcd_putch(time[7],(0xC0 + (11)));
  5004   0003C0  0ECB               	movlw	203
  5005   0003C2  6E0F               	movwf	clcd_putch@addr^0,c
  5006   0003C4  0100               	movlb	0	; () banked
  5007   0003C6  5197               	movf	(_time+7)& (0+255),w,b
  5008   0003C8  EC13  F016         	call	_clcd_putch
  5009   0003CC                     
  5010                           ;menu.c: 486:                 clcd_putch(':',(0xC0 + (9)));
  5011   0003CC  0EC9               	movlw	201
  5012   0003CE  6E0F               	movwf	clcd_putch@addr^0,c
  5013   0003D0  0E3A               	movlw	58
  5014   0003D2  EC13  F016         	call	_clcd_putch
  5015   0003D6                     
  5016                           ;menu.c: 488:                 clcd_putch(time[3],(0xC0 + (7)));
  5017   0003D6  0EC7               	movlw	199
  5018   0003D8  6E0F               	movwf	clcd_putch@addr^0,c
  5019   0003DA  0100               	movlb	0	; () banked
  5020   0003DC  5193               	movf	(_time+3)& (0+255),w,b
  5021   0003DE  EC13  F016         	call	_clcd_putch
  5022   0003E2                     
  5023                           ;menu.c: 489:                 clcd_putch(time[4],(0xC0 + (8)));
  5024   0003E2  0EC8               	movlw	200
  5025   0003E4  6E0F               	movwf	clcd_putch@addr^0,c
  5026   0003E6  0100               	movlb	0	; () banked
  5027   0003E8  5194               	movf	(_time+4)& (0+255),w,b
  5028   0003EA  EC13  F016         	call	_clcd_putch
  5029   0003EE                     
  5030                           ;menu.c: 491:                 clcd_putch(':',(0xC0 + (6)));
  5031   0003EE  0EC6               	movlw	198
  5032   0003F0  6E0F               	movwf	clcd_putch@addr^0,c
  5033   0003F2  0E3A               	movlw	58
  5034   0003F4  EC13  F016         	call	_clcd_putch
  5035                           
  5036                           ;menu.c: 493:             if(flag_1_sec)
  5037   0003F8  5058               	movf	_flag_1_sec^0,w,c
  5038   0003FA  B4D8               	btfsc	status,2,c
  5039   0003FC  EF02  F002         	goto	u2771
  5040   000400  EF04  F002         	goto	u2770
  5041   000404                     u2771:
  5042   000404  EF10  F002         	goto	l3568
  5043   000408                     u2770:
  5044   000408                     
  5045                           ;menu.c: 494:             {;menu.c: 495:                 clcd_putch(' ',(0xC0 + (4)));
  5046   000408  0EC4               	movlw	196
  5047   00040A  6E0F               	movwf	clcd_putch@addr^0,c
  5048   00040C  0E20               	movlw	32
  5049   00040E  EC13  F016         	call	_clcd_putch
  5050                           
  5051                           ;menu.c: 496:                 clcd_putch(' ',(0xC0 + (5)));
  5052   000412  0EC5               	movlw	197
  5053   000414  6E0F               	movwf	clcd_putch@addr^0,c
  5054   000416  0E20               	movlw	32
  5055   000418  EC13  F016         	call	_clcd_putch
  5056                           
  5057                           ;menu.c: 497:             }
  5058   00041C  EF1C  F002         	goto	l3570
  5059   000420                     l3568:
  5060                           
  5061                           ;menu.c: 499:             {;menu.c: 500:                 clcd_putch(time[0],(0xC0 + (4))
      +                          );
  5062   000420  0EC4               	movlw	196
  5063   000422  6E0F               	movwf	clcd_putch@addr^0,c
  5064   000424  0100               	movlb	0	; () banked
  5065   000426  5190               	movf	_time& (0+255),w,b
  5066   000428  EC13  F016         	call	_clcd_putch
  5067                           
  5068                           ;menu.c: 501:                 clcd_putch(time[1],(0xC0 + (5)));
  5069   00042C  0EC5               	movlw	197
  5070   00042E  6E0F               	movwf	clcd_putch@addr^0,c
  5071   000430  0100               	movlb	0	; () banked
  5072   000432  5191               	movf	(_time+1)& (0+255),w,b
  5073   000434  EC13  F016         	call	_clcd_putch
  5074   000438                     l3570:
  5075                           
  5076                           ;menu.c: 506:     if(time_key == 5 && delay++ > 1000)
  5077   000438  0E05               	movlw	5
  5078   00043A  1843               	xorwf	set_time@time_key^0,w,c
  5079   00043C  A4D8               	btfss	status,2,c
  5080   00043E  EF23  F002         	goto	u2781
  5081   000442  EF25  F002         	goto	u2780
  5082   000446                     u2781:
  5083   000446  EFA6  F002         	goto	l3604
  5084   00044A                     u2780:
  5085   00044A  C035  F011         	movff	set_time@delay,??_set_time
  5086   00044E  C036  F012         	movff	set_time@delay+1,??_set_time+1
  5087   000452  C037  F013         	movff	set_time@delay+2,??_set_time+2
  5088   000456  C038  F014         	movff	set_time@delay+3,??_set_time+3
  5089   00045A  2A35               	incf	set_time@delay^0,f,c
  5090   00045C  0E00               	movlw	0
  5091   00045E  2236               	addwfc	(set_time@delay+1)^0,f,c
  5092   000460  2237               	addwfc	(set_time@delay+2)^0,f,c
  5093   000462  2238               	addwfc	(set_time@delay+3)^0,f,c
  5094   000464  5014               	movf	(??_set_time+3)^0,w,c
  5095   000466  1013               	iorwf	(??_set_time+2)^0,w,c
  5096   000468  E10B               	bnz	u2790
  5097   00046A  0EE9               	movlw	233
  5098   00046C  5C11               	subwf	??_set_time^0,w,c
  5099   00046E  0E03               	movlw	3
  5100   000470  5812               	subwfb	(??_set_time+1)^0,w,c
  5101   000472  A0D8               	btfss	status,0,c
  5102   000474  EF3E  F002         	goto	u2791
  5103   000478  EF40  F002         	goto	u2790
  5104   00047C                     u2791:
  5105   00047C  EFA6  F002         	goto	l3604
  5106   000480                     u2790:
  5107   000480                     
  5108                           ;menu.c: 507:         {;menu.c: 508:             psw_mode_flag=0;
  5109   000480  0E00               	movlw	0
  5110   000482  6E4D               	movwf	_psw_mode_flag^0,c
  5111                           
  5112                           ;menu.c: 509:             log_flag = 0;
  5113   000484  0E00               	movlw	0
  5114   000486  6E46               	movwf	_log_flag^0,c
  5115                           
  5116                           ;menu.c: 510:             list_index = 0;
  5117   000488  0E00               	movlw	0
  5118   00048A  6E4B               	movwf	_list_index^0,c
  5119                           
  5120                           ;menu.c: 511:             menu_pos = 0;
  5121   00048C  0E00               	movlw	0
  5122   00048E  6E49               	movwf	_menu_pos^0,c
  5123                           
  5124                           ;menu.c: 512:             direction_flag =1;
  5125   000490  0E01               	movlw	1
  5126   000492  6E56               	movwf	_direction_flag^0,c
  5127                           
  5128                           ;menu.c: 513:             once = 1;
  5129   000494  0E01               	movlw	1
  5130   000496  6E55               	movwf	set_time@once^0,c
  5131   000498                     
  5132                           ;menu.c: 515:             strcpy(psw_star,"    ");
  5133   000498  0EA6               	movlw	low _psw_star
  5134   00049A  6E01               	movwf	strcpy@dest^0,c
  5135   00049C  0E00               	movlw	high _psw_star
  5136   00049E  6E02               	movwf	(strcpy@dest+1)^0,c
  5137   0004A0  0EC6               	movlw	low (STR_10+8)
  5138   0004A2  6E03               	movwf	strcpy@src^0,c
  5139   0004A4  0E2F               	movlw	high (STR_10+8)
  5140   0004A6  6E04               	movwf	(strcpy@src+1)^0,c
  5141   0004A8  EC32  F015         	call	_strcpy	;wreg free
  5142   0004AC                     
  5143                           ;menu.c: 517:             write_ds1307(0x02,(((time[0]-48)<<4) | ((time[1]-48) & 0x0F)))
      +                          ;
  5144   0004AC  C091  F011         	movff	_time+1,??_set_time
  5145   0004B0  0ED0               	movlw	208
  5146   0004B2  2611               	addwf	??_set_time^0,f,c
  5147   0004B4  0E0F               	movlw	15
  5148   0004B6  1611               	andwf	??_set_time^0,f,c
  5149   0004B8  0100               	movlb	0	; () banked
  5150   0004BA  3990               	swapf	_time& (0+255),w,b
  5151   0004BC  0BF0               	andlw	240
  5152   0004BE  1011               	iorwf	??_set_time^0,w,c
  5153   0004C0  6E02               	movwf	write_ds1307@data^0,c
  5154   0004C2  0E02               	movlw	2
  5155   0004C4  ECF8  F015         	call	_write_ds1307
  5156   0004C8                     
  5157                           ;menu.c: 520:             write_ds1307(0x01,(((time[3]-48)<<4) | ((time[4]-48) & 0x0F)))
      +                          ;
  5158   0004C8  C094  F011         	movff	_time+4,??_set_time
  5159   0004CC  0ED0               	movlw	208
  5160   0004CE  2611               	addwf	??_set_time^0,f,c
  5161   0004D0  0E0F               	movlw	15
  5162   0004D2  1611               	andwf	??_set_time^0,f,c
  5163   0004D4  0100               	movlb	0	; () banked
  5164   0004D6  3993               	swapf	(_time+3)& (0+255),w,b
  5165   0004D8  0BF0               	andlw	240
  5166   0004DA  1011               	iorwf	??_set_time^0,w,c
  5167   0004DC  6E02               	movwf	write_ds1307@data^0,c
  5168   0004DE  0E01               	movlw	1
  5169   0004E0  ECF8  F015         	call	_write_ds1307
  5170   0004E4                     
  5171                           ;menu.c: 523:             write_ds1307(0x00, ((((time[6]-48)<<4) | ((time[7]-48) & 0x0F)
      +                          ) & 0x7F));
  5172   0004E4  C097  F011         	movff	_time+7,??_set_time
  5173   0004E8  0ED0               	movlw	208
  5174   0004EA  2611               	addwf	??_set_time^0,f,c
  5175   0004EC  0E0F               	movlw	15
  5176   0004EE  1611               	andwf	??_set_time^0,f,c
  5177   0004F0  0100               	movlb	0	; () banked
  5178   0004F2  3996               	swapf	(_time+6)& (0+255),w,b
  5179   0004F4  0BF0               	andlw	240
  5180   0004F6  1011               	iorwf	??_set_time^0,w,c
  5181   0004F8  0B7F               	andlw	127
  5182   0004FA  6E02               	movwf	write_ds1307@data^0,c
  5183   0004FC  0E00               	movlw	0
  5184   0004FE  ECF8  F015         	call	_write_ds1307
  5185   000502                     
  5186                           ;menu.c: 525:             delay =0;
  5187   000502  0E00               	movlw	0
  5188   000504  6E35               	movwf	set_time@delay^0,c
  5189   000506  0E00               	movlw	0
  5190   000508  6E36               	movwf	(set_time@delay+1)^0,c
  5191   00050A  0E00               	movlw	0
  5192   00050C  6E37               	movwf	(set_time@delay+2)^0,c
  5193   00050E  0E00               	movlw	0
  5194   000510  6E38               	movwf	(set_time@delay+3)^0,c
  5195   000512                     
  5196                           ;menu.c: 527:             TMR0IE = 0;
  5197   000512  9AF2               	bcf	4082,5,c	;volatile
  5198   000514                     
  5199                           ;menu.c: 529:             flag_5_sec = 0;
  5200   000514  0E00               	movlw	0
  5201   000516  6E50               	movwf	_flag_5_sec^0,c
  5202   000518                     
  5203                           ;menu.c: 530:             flag_30_sec =0;
  5204   000518  0E00               	movlw	0
  5205   00051A  6E4F               	movwf	_flag_30_sec^0,c
  5206   00051C                     
  5207                           ;menu.c: 531:             flag_2_min = 0;
  5208   00051C  0E00               	movlw	0
  5209   00051E  6E4E               	movwf	_flag_2_min^0,c
  5210   000520                     
  5211                           ;menu.c: 532:             flag_1_sec = 0;
  5212   000520  0E00               	movlw	0
  5213   000522  6E58               	movwf	_flag_1_sec^0,c
  5214   000524                     
  5215                           ;menu.c: 533:             TMR0 = 6;
  5216   000524  0E00               	movlw	0
  5217   000526  6ED7               	movwf	215,c	;volatile
  5218   000528  0E06               	movlw	6
  5219   00052A  6ED6               	movwf	214,c	;volatile
  5220   00052C                     
  5221                           ;menu.c: 534:             TMR0IF = 0;
  5222   00052C  94F2               	bcf	4082,2,c	;volatile
  5223   00052E                     
  5224                           ;menu.c: 535:             min_count = 0;
  5225   00052E  0E00               	movlw	0
  5226   000530  0100               	movlb	0	; () banked
  5227   000532  6FC3               	movwf	(_min_count+1)& (0+255),b
  5228   000534  0E00               	movlw	0
  5229   000536  6FC2               	movwf	_min_count& (0+255),b
  5230   000538                     
  5231                           ; BSR set to: 0
  5232                           ;menu.c: 536:             count=0;
  5233   000538  0E00               	movlw	0
  5234   00053A  6FB4               	movwf	_count& (0+255),b
  5235   00053C  0E00               	movlw	0
  5236   00053E  6FB5               	movwf	(_count+1)& (0+255),b
  5237   000540  0E00               	movlw	0
  5238   000542  6FB6               	movwf	(_count+2)& (0+255),b
  5239   000544  0E00               	movlw	0
  5240   000546  6FB7               	movwf	(_count+3)& (0+255),b
  5241                           
  5242                           ;menu.c: 537:         }
  5243   000548  EFF7  F002         	goto	l472
  5244   00054C                     l3604:
  5245   00054C  0E06               	movlw	6
  5246   00054E  1843               	xorwf	set_time@time_key^0,w,c
  5247   000550  A4D8               	btfss	status,2,c
  5248   000552  EFAD  F002         	goto	u2801
  5249   000556  EFAF  F002         	goto	u2800
  5250   00055A                     u2801:
  5251   00055A  EFF7  F002         	goto	l472
  5252   00055E                     u2800:
  5253   00055E  C0B0  F011         	movff	set_time@delay2,??_set_time
  5254   000562  C0B1  F012         	movff	set_time@delay2+1,??_set_time+1
  5255   000566  C0B2  F013         	movff	set_time@delay2+2,??_set_time+2
  5256   00056A  C0B3  F014         	movff	set_time@delay2+3,??_set_time+3
  5257   00056E  0100               	movlb	0	; () banked
  5258   000570  2BB0               	incf	set_time@delay2& (0+255),f,b
  5259   000572  0E00               	movlw	0
  5260   000574  23B1               	addwfc	(set_time@delay2+1)& (0+255),f,b
  5261   000576  23B2               	addwfc	(set_time@delay2+2)& (0+255),f,b
  5262   000578  23B3               	addwfc	(set_time@delay2+3)& (0+255),f,b
  5263   00057A  5014               	movf	(??_set_time+3)^0,w,c
  5264   00057C  1013               	iorwf	(??_set_time+2)^0,w,c
  5265   00057E  E10B               	bnz	u2810
  5266   000580  0EE9               	movlw	233
  5267   000582  5C11               	subwf	??_set_time^0,w,c
  5268   000584  0E03               	movlw	3
  5269   000586  5812               	subwfb	(??_set_time+1)^0,w,c
  5270   000588  A0D8               	btfss	status,0,c
  5271   00058A  EFC9  F002         	goto	u2811
  5272   00058E  EFCB  F002         	goto	u2810
  5273   000592                     u2811:
  5274   000592  EFF7  F002         	goto	l472
  5275   000596                     u2810:
  5276   000596                     
  5277                           ; BSR set to: 0
  5278                           ;menu.c: 540:         {;menu.c: 541:             once = 1;
  5279   000596  0E01               	movlw	1
  5280   000598  6E55               	movwf	set_time@once^0,c
  5281   00059A                     
  5282                           ; BSR set to: 0
  5283                           ;menu.c: 542:             TMR0IE = 0;
  5284   00059A  9AF2               	bcf	4082,5,c	;volatile
  5285                           
  5286                           ;menu.c: 544:             flag_5_sec = 0;
  5287   00059C  0E00               	movlw	0
  5288   00059E  6E50               	movwf	_flag_5_sec^0,c
  5289                           
  5290                           ;menu.c: 545:             flag_30_sec =0;
  5291   0005A0  0E00               	movlw	0
  5292   0005A2  6E4F               	movwf	_flag_30_sec^0,c
  5293                           
  5294                           ;menu.c: 546:             flag_2_min = 0;
  5295   0005A4  0E00               	movlw	0
  5296   0005A6  6E4E               	movwf	_flag_2_min^0,c
  5297                           
  5298                           ;menu.c: 547:             flag_1_sec = 0;
  5299   0005A8  0E00               	movlw	0
  5300   0005AA  6E58               	movwf	_flag_1_sec^0,c
  5301                           
  5302                           ;menu.c: 548:             TMR0 = 6;
  5303   0005AC  0E00               	movlw	0
  5304   0005AE  6ED7               	movwf	215,c	;volatile
  5305   0005B0  0E06               	movlw	6
  5306   0005B2  6ED6               	movwf	214,c	;volatile
  5307   0005B4                     
  5308                           ; BSR set to: 0
  5309                           ;menu.c: 549:             TMR0IF = 0;
  5310   0005B4  94F2               	bcf	4082,2,c	;volatile
  5311                           
  5312                           ;menu.c: 550:             min_count = 0;
  5313   0005B6  0E00               	movlw	0
  5314   0005B8  6FC3               	movwf	(_min_count+1)& (0+255),b
  5315   0005BA  0E00               	movlw	0
  5316   0005BC  6FC2               	movwf	_min_count& (0+255),b
  5317                           
  5318                           ;menu.c: 551:             count=0;
  5319   0005BE  0E00               	movlw	0
  5320   0005C0  6FB4               	movwf	_count& (0+255),b
  5321   0005C2  0E00               	movlw	0
  5322   0005C4  6FB5               	movwf	(_count+1)& (0+255),b
  5323   0005C6  0E00               	movlw	0
  5324   0005C8  6FB6               	movwf	(_count+2)& (0+255),b
  5325   0005CA  0E00               	movlw	0
  5326   0005CC  6FB7               	movwf	(_count+3)& (0+255),b
  5327                           
  5328                           ;menu.c: 553:             delay2=0;
  5329   0005CE  0E00               	movlw	0
  5330   0005D0  6FB0               	movwf	set_time@delay2& (0+255),b
  5331   0005D2  0E00               	movlw	0
  5332   0005D4  6FB1               	movwf	(set_time@delay2+1)& (0+255),b
  5333   0005D6  0E00               	movlw	0
  5334   0005D8  6FB2               	movwf	(set_time@delay2+2)& (0+255),b
  5335   0005DA  0E00               	movlw	0
  5336   0005DC  6FB3               	movwf	(set_time@delay2+3)& (0+255),b
  5337                           
  5338                           ;menu.c: 554:             log_flag = 0;
  5339   0005DE  0E00               	movlw	0
  5340   0005E0  6E46               	movwf	_log_flag^0,c
  5341                           
  5342                           ;menu.c: 555:             list_index = 0;
  5343   0005E2  0E00               	movlw	0
  5344   0005E4  6E4B               	movwf	_list_index^0,c
  5345                           
  5346                           ;menu.c: 556:             menu_pos = 0;
  5347   0005E6  0E00               	movlw	0
  5348   0005E8  6E49               	movwf	_menu_pos^0,c
  5349                           
  5350                           ;menu.c: 557:             direction_flag =1;
  5351   0005EA  0E01               	movlw	1
  5352   0005EC  6E56               	movwf	_direction_flag^0,c
  5353   0005EE                     l472:
  5354   0005EE  0012               	return		;funcret
  5355   0005F0                     __end_of_set_time:
  5356                           	callstack 0
  5357                           
  5358 ;; *************** function _write_ds1307 *****************
  5359 ;; Defined at:
  5360 ;;		line 83 in file "rtc.c"
  5361 ;; Parameters:    Size  Location     Type
  5362 ;;  address         1    wreg     unsigned char 
  5363 ;;  data            1    1[COMRAM] unsigned char 
  5364 ;; Auto vars:     Size  Location     Type
  5365 ;;  address         1    2[COMRAM] unsigned char 
  5366 ;; Return value:  Size  Location     Type
  5367 ;;                  1    wreg      void 
  5368 ;; Registers used:
  5369 ;;		wreg, status,2, cstack
  5370 ;; Tracked objects:
  5371 ;;		On entry : 0/0
  5372 ;;		On exit  : 0/0
  5373 ;;		Unchanged: 0/0
  5374 ;; Data sizes:     COMRAM   BANK0   BANK1   BANK2   BANK3   BANK4   BANK5
  5375 ;;      Params:         1       0       0       0       0       0       0
  5376 ;;      Locals:         1       0       0       0       0       0       0
  5377 ;;      Temps:          0       0       0       0       0       0       0
  5378 ;;      Totals:         2       0       0       0       0       0       0
  5379 ;;Total ram usage:        2 bytes
  5380 ;; Hardware stack levels used: 1
  5381 ;; Hardware stack levels required when called: 3
  5382 ;; This function calls:
  5383 ;;		_i2c_start
  5384 ;;		_i2c_stop
  5385 ;;		_i2c_write
  5386 ;; This function is called by:
  5387 ;;		_set_time
  5388 ;;		_init_ds1307
  5389 ;; This function uses a non-reentrant model
  5390 ;;
  5391                           
  5392                           	psect	text17
  5393   002BF0                     __ptext17:
  5394                           	callstack 0
  5395   002BF0                     _write_ds1307:
  5396                           	callstack 25
  5397                           
  5398                           ;incstack = 0
  5399                           ;write_ds1307@address stored from wreg
  5400   002BF0  6E03               	movwf	write_ds1307@address^0,c
  5401   002BF2                     
  5402                           ;rtc.c: 83: void write_ds1307(unsigned char address, unsigned char data);rtc.c: 84: {;rt
      +                          c.c: 85:  i2c_start();
  5403   002BF2  EC60  F016         	call	_i2c_start	;wreg free
  5404   002BF6                     
  5405                           ;rtc.c: 86:  i2c_write(0xD0);
  5406   002BF6  0ED0               	movlw	208
  5407   002BF8  EC50  F016         	call	_i2c_write
  5408   002BFC                     
  5409                           ;rtc.c: 87:  i2c_write(address);
  5410   002BFC  5003               	movf	write_ds1307@address^0,w,c
  5411   002BFE  EC50  F016         	call	_i2c_write
  5412   002C02                     
  5413                           ;rtc.c: 88:  i2c_write(data);
  5414   002C02  5002               	movf	write_ds1307@data^0,w,c
  5415   002C04  EC50  F016         	call	_i2c_write
  5416   002C08                     
  5417                           ;rtc.c: 89:  i2c_stop();
  5418   002C08  EC5C  F016         	call	_i2c_stop	;wreg free
  5419   002C0C  0012               	return		;funcret
  5420   002C0E                     __end_of_write_ds1307:
  5421                           	callstack 0
  5422                           
  5423 ;; *************** function _download_log *****************
  5424 ;; Defined at:
  5425 ;;		line 280 in file "menu.c"
  5426 ;; Parameters:    Size  Location     Type
  5427 ;;		None
  5428 ;; Auto vars:     Size  Location     Type
  5429 ;;		None
  5430 ;; Return value:  Size  Location     Type
  5431 ;;                  1    wreg      void 
  5432 ;; Registers used:
  5433 ;;		wreg, fsr0l, fsr0h, fsr2l, fsr2h, status,2, status,0, tblptrl, tblptrh, tblptru, prodl, prodh, cstack
  5434 ;; Tracked objects:
  5435 ;;		On entry : 0/0
  5436 ;;		On exit  : 0/0
  5437 ;;		Unchanged: 0/0
  5438 ;; Data sizes:     COMRAM   BANK0   BANK1   BANK2   BANK3   BANK4   BANK5
  5439 ;;      Params:         0       0       0       0       0       0       0
  5440 ;;      Locals:         0       0       0       0       0       0       0
  5441 ;;      Temps:          0       0       0       0       0       0       0
  5442 ;;      Totals:         0       0       0       0       0       0       0
  5443 ;;Total ram usage:        0 bytes
  5444 ;; Hardware stack levels used: 1
  5445 ;; Hardware stack levels required when called: 6
  5446 ;; This function calls:
  5447 ;;		_clcd_print
  5448 ;;		_get_data
  5449 ;; This function is called by:
  5450 ;;		_display_menu
  5451 ;; This function uses a non-reentrant model
  5452 ;;
  5453                           
  5454                           	psect	text18
  5455   0024F2                     __ptext18:
  5456                           	callstack 0
  5457   0024F2                     _download_log:
  5458                           	callstack 21
  5459   0024F2                     
  5460                           ;menu.c: 282:     clcd_print("  DOWNLOAD LOG  ",(0x80 + (0)));
  5461   0024F2  0EA6               	movlw	low STR_21
  5462   0024F4  6E03               	movwf	clcd_print@data^0,c
  5463   0024F6  0E2E               	movlw	high STR_21
  5464   0024F8  6E04               	movwf	(clcd_print@data+1)^0,c
  5465   0024FA  0E80               	movlw	128
  5466   0024FC  6E05               	movwf	clcd_print@addr^0,c
  5467   0024FE  ECAF  F013         	call	_clcd_print	;wreg free
  5468                           
  5469                           ;menu.c: 283:     clcd_print("   SUCCESSFUL   ",(0xC0 + (0)));
  5470   002502  0E84               	movlw	low STR_20
  5471   002504  6E03               	movwf	clcd_print@data^0,c
  5472   002506  0E2E               	movlw	high STR_20
  5473   002508  6E04               	movwf	(clcd_print@data+1)^0,c
  5474   00250A  0EC0               	movlw	192
  5475   00250C  6E05               	movwf	clcd_print@addr^0,c
  5476   00250E  ECAF  F013         	call	_clcd_print	;wreg free
  5477   002512                     
  5478                           ;menu.c: 286:     get_data();
  5479   002512  EC49  F00D         	call	_get_data	;wreg free
  5480   002516                     
  5481                           ;menu.c: 288:     flag_5_sec = 0;
  5482   002516  0E00               	movlw	0
  5483   002518  6E50               	movwf	_flag_5_sec^0,c
  5484   00251A                     
  5485                           ;menu.c: 289:     TMR0 = 6;
  5486   00251A  0E00               	movlw	0
  5487   00251C  6ED7               	movwf	215,c	;volatile
  5488   00251E  0E06               	movlw	6
  5489   002520  6ED6               	movwf	214,c	;volatile
  5490   002522                     
  5491                           ;menu.c: 290:     TMR0IF = 0;
  5492   002522  94F2               	bcf	4082,2,c	;volatile
  5493   002524                     
  5494                           ;menu.c: 291:     count=0;
  5495   002524  0E00               	movlw	0
  5496   002526  0100               	movlb	0	; () banked
  5497   002528  6FB4               	movwf	_count& (0+255),b
  5498   00252A  0E00               	movlw	0
  5499   00252C  6FB5               	movwf	(_count+1)& (0+255),b
  5500   00252E  0E00               	movlw	0
  5501   002530  6FB6               	movwf	(_count+2)& (0+255),b
  5502   002532  0E00               	movlw	0
  5503   002534  6FB7               	movwf	(_count+3)& (0+255),b
  5504   002536                     
  5505                           ; BSR set to: 0
  5506                           ;menu.c: 292:     TMR0IE = 1;
  5507   002536  8AF2               	bsf	4082,5,c	;volatile
  5508   002538                     l3438:
  5509   002538  5050               	movf	_flag_5_sec^0,w,c
  5510   00253A  B4D8               	btfsc	status,2,c
  5511   00253C  EFA2  F012         	goto	u2571
  5512   002540  EFA4  F012         	goto	u2570
  5513   002544                     u2571:
  5514   002544  EF9C  F012         	goto	l3438
  5515   002548                     u2570:
  5516   002548                     
  5517                           ;menu.c: 294:     TMR0IE = 0;
  5518   002548  9AF2               	bcf	4082,5,c	;volatile
  5519   00254A                     
  5520                           ;menu.c: 295:     flag_5_sec = 0;
  5521   00254A  0E00               	movlw	0
  5522   00254C  6E50               	movwf	_flag_5_sec^0,c
  5523                           
  5524                           ;menu.c: 296:     flag_1_sec = 0;
  5525   00254E  0E00               	movlw	0
  5526   002550  6E58               	movwf	_flag_1_sec^0,c
  5527                           
  5528                           ;menu.c: 297:     TMR0 = 6;
  5529   002552  0E00               	movlw	0
  5530   002554  6ED7               	movwf	215,c	;volatile
  5531   002556  0E06               	movlw	6
  5532   002558  6ED6               	movwf	214,c	;volatile
  5533   00255A                     
  5534                           ;menu.c: 298:     TMR0IF = 0;
  5535   00255A  94F2               	bcf	4082,2,c	;volatile
  5536                           
  5537                           ;menu.c: 299:     min_count = 0;
  5538   00255C  0E00               	movlw	0
  5539   00255E  0100               	movlb	0	; () banked
  5540   002560  6FC3               	movwf	(_min_count+1)& (0+255),b
  5541   002562  0E00               	movlw	0
  5542   002564  6FC2               	movwf	_min_count& (0+255),b
  5543                           
  5544                           ;menu.c: 300:     count=0;
  5545   002566  0E00               	movlw	0
  5546   002568  6FB4               	movwf	_count& (0+255),b
  5547   00256A  0E00               	movlw	0
  5548   00256C  6FB5               	movwf	(_count+1)& (0+255),b
  5549   00256E  0E00               	movlw	0
  5550   002570  6FB6               	movwf	(_count+2)& (0+255),b
  5551   002572  0E00               	movlw	0
  5552   002574  6FB7               	movwf	(_count+3)& (0+255),b
  5553   002576                     
  5554                           ; BSR set to: 0
  5555   002576  0012               	return		;funcret
  5556   002578                     __end_of_download_log:
  5557                           	callstack 0
  5558                           
  5559 ;; *************** function _get_data *****************
  5560 ;; Defined at:
  5561 ;;		line 304 in file "menu.c"
  5562 ;; Parameters:    Size  Location     Type
  5563 ;;		None
  5564 ;; Auto vars:     Size  Location     Type
  5565 ;;  ind             1   32[COMRAM] unsigned char 
  5566 ;;  dwn_data       16   16[COMRAM] unsigned char [16]
  5567 ;;  temp            1   34[COMRAM] unsigned char 
  5568 ;;  add             1   33[COMRAM] unsigned char 
  5569 ;; Return value:  Size  Location     Type
  5570 ;;                  1    wreg      void 
  5571 ;; Registers used:
  5572 ;;		wreg, fsr0l, fsr0h, fsr2l, fsr2h, status,2, status,0, tblptrl, tblptrh, tblptru, prodl, prodh, cstack
  5573 ;; Tracked objects:
  5574 ;;		On entry : 0/0
  5575 ;;		On exit  : 0/0
  5576 ;;		Unchanged: 0/0
  5577 ;; Data sizes:     COMRAM   BANK0   BANK1   BANK2   BANK3   BANK4   BANK5
  5578 ;;      Params:         0       0       0       0       0       0       0
  5579 ;;      Locals:        19       0       0       0       0       0       0
  5580 ;;      Temps:          2       0       0       0       0       0       0
  5581 ;;      Totals:        21       0       0       0       0       0       0
  5582 ;;Total ram usage:       21 bytes
  5583 ;; Hardware stack levels used: 1
  5584 ;; Hardware stack levels required when called: 5
  5585 ;; This function calls:
  5586 ;;		___awdiv
  5587 ;;		___awmod
  5588 ;;		_puts
  5589 ;;		_read_external_eeprom
  5590 ;; This function is called by:
  5591 ;;		_download_log
  5592 ;; This function uses a non-reentrant model
  5593 ;;
  5594                           
  5595                           	psect	text19
  5596   001A92                     __ptext19:
  5597                           	callstack 0
  5598   001A92                     _get_data:
  5599                           	callstack 21
  5600   001A92                     
  5601                           ;menu.c: 307:     char dwn_data[16],temp;;menu.c: 308:     unsigned char add=0;
  5602   001A92  0E00               	movlw	0
  5603   001A94  6E22               	movwf	get_data@add^0,c
  5604                           
  5605                           ;menu.c: 309:     if(log_count == 0)
  5606   001A96  5047               	movf	_log_count^0,w,c
  5607   001A98  A4D8               	btfss	status,2,c
  5608   001A9A  EF51  F00D         	goto	u2541
  5609   001A9E  EF53  F00D         	goto	u2540
  5610   001AA2                     u2541:
  5611   001AA2  EF61  F00D         	goto	l3314
  5612   001AA6                     u2540:
  5613   001AA6                     
  5614                           ;menu.c: 310:     {;menu.c: 312:         puts("LOG EMPTY");
  5615   001AA6  0ECB               	movlw	low STR_23
  5616   001AA8  6E02               	movwf	puts@s^0,c
  5617   001AAA  0E2F               	movlw	high STR_23
  5618   001AAC  6E03               	movwf	(puts@s+1)^0,c
  5619   001AAE  EC4A  F014         	call	_puts	;wreg free
  5620                           
  5621                           ;menu.c: 313:         puts("\n\r");
  5622   001AB2  0EFC               	movlw	low STR_24
  5623   001AB4  6E02               	movwf	puts@s^0,c
  5624   001AB6  0E2F               	movlw	high STR_24
  5625   001AB8  6E03               	movwf	(puts@s+1)^0,c
  5626   001ABA  EC4A  F014         	call	_puts	;wreg free
  5627                           
  5628                           ;menu.c: 314:     }
  5629   001ABE  EF30  F00E         	goto	l430
  5630   001AC2                     l3314:
  5631                           
  5632                           ;menu.c: 316:     {;menu.c: 317:         puts("  TIME   EV SP");
  5633   001AC2  0EAF               	movlw	low STR_25
  5634   001AC4  6E02               	movwf	puts@s^0,c
  5635   001AC6  0E2F               	movlw	high STR_25
  5636   001AC8  6E03               	movwf	(puts@s+1)^0,c
  5637   001ACA  EC4A  F014         	call	_puts	;wreg free
  5638                           
  5639                           ;menu.c: 318:         puts("\n\r");
  5640   001ACE  0EFC               	movlw	low STR_24
  5641   001AD0  6E02               	movwf	puts@s^0,c
  5642   001AD2  0E2F               	movlw	high STR_24
  5643   001AD4  6E03               	movwf	(puts@s+1)^0,c
  5644   001AD6  EC4A  F014         	call	_puts	;wreg free
  5645   001ADA                     
  5646                           ;menu.c: 319:     for(unsigned char ind=0; ind<log_count;ind++)
  5647   001ADA  0E00               	movlw	0
  5648   001ADC  6E21               	movwf	get_data@ind^0,c
  5649   001ADE  EF27  F00E         	goto	l3370
  5650   001AE2                     l3318:
  5651                           
  5652                           ;menu.c: 320:     {;menu.c: 321:         temp = read_external_eeprom(add++);
  5653   001AE2  5022               	movf	get_data@add^0,w,c
  5654   001AE4  EC8A  F015         	call	_read_external_eeprom
  5655   001AE8  6E23               	movwf	get_data@temp^0,c
  5656   001AEA  2A22               	incf	get_data@add^0,f,c
  5657   001AEC                     
  5658                           ;menu.c: 322:         dwn_data[0]=((temp/10)+48);
  5659   001AEC  C023  F007         	movff	get_data@temp,___awdiv@dividend
  5660   001AF0  6A08               	clrf	(___awdiv@dividend+1)^0,c
  5661   001AF2  0E00               	movlw	0
  5662   001AF4  6E0A               	movwf	(___awdiv@divisor+1)^0,c
  5663   001AF6  0E0A               	movlw	10
  5664   001AF8  6E09               	movwf	___awdiv@divisor^0,c
  5665   001AFA  EC79  F011         	call	___awdiv	;wreg free
  5666   001AFE  5007               	movf	?___awdiv^0,w,c
  5667   001B00  0F30               	addlw	48
  5668   001B02  6E11               	movwf	get_data@dwn_data^0,c
  5669   001B04                     
  5670                           ;menu.c: 323:         dwn_data[1]=((temp%10)+48);
  5671   001B04  C023  F001         	movff	get_data@temp,___awmod@dividend
  5672   001B08  6A02               	clrf	(___awmod@dividend+1)^0,c
  5673   001B0A  0E00               	movlw	0
  5674   001B0C  6E04               	movwf	(___awmod@divisor+1)^0,c
  5675   001B0E  0E0A               	movlw	10
  5676   001B10  6E03               	movwf	___awmod@divisor^0,c
  5677   001B12  ECDB  F011         	call	___awmod	;wreg free
  5678   001B16  5001               	movf	?___awmod^0,w,c
  5679   001B18  0F30               	addlw	48
  5680   001B1A  6E12               	movwf	(get_data@dwn_data+1)^0,c
  5681   001B1C                     
  5682                           ;menu.c: 325:         dwn_data[2]=':';
  5683   001B1C  0E3A               	movlw	58
  5684   001B1E  6E13               	movwf	(get_data@dwn_data+2)^0,c
  5685   001B20                     
  5686                           ;menu.c: 327:         temp = read_external_eeprom(add++);
  5687   001B20  5022               	movf	get_data@add^0,w,c
  5688   001B22  EC8A  F015         	call	_read_external_eeprom
  5689   001B26  6E23               	movwf	get_data@temp^0,c
  5690   001B28  2A22               	incf	get_data@add^0,f,c
  5691   001B2A                     
  5692                           ;menu.c: 328:         dwn_data[3]=((temp/10)+48);
  5693   001B2A  C023  F007         	movff	get_data@temp,___awdiv@dividend
  5694   001B2E  6A08               	clrf	(___awdiv@dividend+1)^0,c
  5695   001B30  0E00               	movlw	0
  5696   001B32  6E0A               	movwf	(___awdiv@divisor+1)^0,c
  5697   001B34  0E0A               	movlw	10
  5698   001B36  6E09               	movwf	___awdiv@divisor^0,c
  5699   001B38  EC79  F011         	call	___awdiv	;wreg free
  5700   001B3C  5007               	movf	?___awdiv^0,w,c
  5701   001B3E  0F30               	addlw	48
  5702   001B40  6E14               	movwf	(get_data@dwn_data+3)^0,c
  5703   001B42                     
  5704                           ;menu.c: 329:         dwn_data[4]=((temp%10)+48);
  5705   001B42  C023  F001         	movff	get_data@temp,___awmod@dividend
  5706   001B46  6A02               	clrf	(___awmod@dividend+1)^0,c
  5707   001B48  0E00               	movlw	0
  5708   001B4A  6E04               	movwf	(___awmod@divisor+1)^0,c
  5709   001B4C  0E0A               	movlw	10
  5710   001B4E  6E03               	movwf	___awmod@divisor^0,c
  5711   001B50  ECDB  F011         	call	___awmod	;wreg free
  5712   001B54  5001               	movf	?___awmod^0,w,c
  5713   001B56  0F30               	addlw	48
  5714   001B58  6E15               	movwf	(get_data@dwn_data+4)^0,c
  5715                           
  5716                           ;menu.c: 331:         dwn_data[5]=':';
  5717   001B5A  0E3A               	movlw	58
  5718   001B5C  6E16               	movwf	(get_data@dwn_data+5)^0,c
  5719   001B5E                     
  5720                           ;menu.c: 333:         temp = read_external_eeprom(add++);
  5721   001B5E  5022               	movf	get_data@add^0,w,c
  5722   001B60  EC8A  F015         	call	_read_external_eeprom
  5723   001B64  6E23               	movwf	get_data@temp^0,c
  5724   001B66  2A22               	incf	get_data@add^0,f,c
  5725   001B68                     
  5726                           ;menu.c: 334:         dwn_data[6]=((temp/10)+48);
  5727   001B68  C023  F007         	movff	get_data@temp,___awdiv@dividend
  5728   001B6C  6A08               	clrf	(___awdiv@dividend+1)^0,c
  5729   001B6E  0E00               	movlw	0
  5730   001B70  6E0A               	movwf	(___awdiv@divisor+1)^0,c
  5731   001B72  0E0A               	movlw	10
  5732   001B74  6E09               	movwf	___awdiv@divisor^0,c
  5733   001B76  EC79  F011         	call	___awdiv	;wreg free
  5734   001B7A  5007               	movf	?___awdiv^0,w,c
  5735   001B7C  0F30               	addlw	48
  5736   001B7E  6E17               	movwf	(get_data@dwn_data+6)^0,c
  5737   001B80                     
  5738                           ;menu.c: 335:         dwn_data[7]=((temp%10)+48);
  5739   001B80  C023  F001         	movff	get_data@temp,___awmod@dividend
  5740   001B84  6A02               	clrf	(___awmod@dividend+1)^0,c
  5741   001B86  0E00               	movlw	0
  5742   001B88  6E04               	movwf	(___awmod@divisor+1)^0,c
  5743   001B8A  0E0A               	movlw	10
  5744   001B8C  6E03               	movwf	___awmod@divisor^0,c
  5745   001B8E  ECDB  F011         	call	___awmod	;wreg free
  5746   001B92  5001               	movf	?___awmod^0,w,c
  5747   001B94  0F30               	addlw	48
  5748   001B96  6E18               	movwf	(get_data@dwn_data+7)^0,c
  5749   001B98                     
  5750                           ;menu.c: 337:         dwn_data[8]=' ';
  5751   001B98  0E20               	movlw	32
  5752   001B9A  6E19               	movwf	(get_data@dwn_data+8)^0,c
  5753   001B9C                     
  5754                           ;menu.c: 339:         temp = read_external_eeprom(add++);
  5755   001B9C  5022               	movf	get_data@add^0,w,c
  5756   001B9E  EC8A  F015         	call	_read_external_eeprom
  5757   001BA2  6E23               	movwf	get_data@temp^0,c
  5758   001BA4  2A22               	incf	get_data@add^0,f,c
  5759   001BA6                     
  5760                           ;menu.c: 340:         dwn_data[9]=(event[temp][0]);
  5761   001BA6  5023               	movf	get_data@temp^0,w,c
  5762   001BA8  0D02               	mullw	2
  5763   001BAA  0E74               	movlw	low _event
  5764   001BAC  24F3               	addwf	243,w,c
  5765   001BAE  6ED9               	movwf	fsr2l,c
  5766   001BB0  0E00               	movlw	high _event
  5767   001BB2  20F4               	addwfc	prodh,w,c
  5768   001BB4  6EDA               	movwf	fsr2h,c
  5769   001BB6  CFDE FFF6          	movff	postinc2,tblptrl
  5770   001BBA  CFDD FFF7          	movff	postdec2,tblptrh
  5771   001BBE                     	if	0	;tblptru may be non-zero
  5772   001BBE                     	endif
  5773   001BBE                     	if	0	;tblptru may be non-zero
  5774   001BBE                     	endif
  5775   001BBE  0008               	tblrd		*
  5776   001BC0  CFF5 F01A          	movff	tablat,get_data@dwn_data+9
  5777   001BC4                     
  5778                           ;menu.c: 341:         dwn_data[10]=(event[temp][1]);
  5779   001BC4  5023               	movf	get_data@temp^0,w,c
  5780   001BC6  0D02               	mullw	2
  5781   001BC8  0E74               	movlw	low _event
  5782   001BCA  24F3               	addwf	243,w,c
  5783   001BCC  6ED9               	movwf	fsr2l,c
  5784   001BCE  0E00               	movlw	high _event
  5785   001BD0  20F4               	addwfc	prodh,w,c
  5786   001BD2  6EDA               	movwf	fsr2h,c
  5787   001BD4  CFDE F00F          	movff	postinc2,??_get_data
  5788   001BD8  CFDD F010          	movff	postdec2,??_get_data+1
  5789   001BDC  0E01               	movlw	1
  5790   001BDE  260F               	addwf	??_get_data^0,f,c
  5791   001BE0  0E00               	movlw	0
  5792   001BE2  2210               	addwfc	(??_get_data+1)^0,f,c
  5793   001BE4  C00F  FFF6         	movff	??_get_data,tblptrl
  5794   001BE8  C010  FFF7         	movff	??_get_data+1,tblptrh
  5795   001BEC                     	if	0	;tblptru may be non-zero
  5796   001BEC                     	endif
  5797   001BEC                     	if	0	;tblptru may be non-zero
  5798   001BEC                     	endif
  5799   001BEC  0008               	tblrd		*
  5800   001BEE  CFF5 F01B          	movff	tablat,get_data@dwn_data+10
  5801   001BF2                     
  5802                           ;menu.c: 343:         dwn_data[11]=' ';
  5803   001BF2  0E20               	movlw	32
  5804   001BF4  6E1C               	movwf	(get_data@dwn_data+11)^0,c
  5805   001BF6                     
  5806                           ;menu.c: 345:         temp = read_external_eeprom(add++);
  5807   001BF6  5022               	movf	get_data@add^0,w,c
  5808   001BF8  EC8A  F015         	call	_read_external_eeprom
  5809   001BFC  6E23               	movwf	get_data@temp^0,c
  5810   001BFE  2A22               	incf	get_data@add^0,f,c
  5811   001C00                     
  5812                           ;menu.c: 346:         dwn_data[12]=((temp/10)+48);
  5813   001C00  C023  F007         	movff	get_data@temp,___awdiv@dividend
  5814   001C04  6A08               	clrf	(___awdiv@dividend+1)^0,c
  5815   001C06  0E00               	movlw	0
  5816   001C08  6E0A               	movwf	(___awdiv@divisor+1)^0,c
  5817   001C0A  0E0A               	movlw	10
  5818   001C0C  6E09               	movwf	___awdiv@divisor^0,c
  5819   001C0E  EC79  F011         	call	___awdiv	;wreg free
  5820   001C12  5007               	movf	?___awdiv^0,w,c
  5821   001C14  0F30               	addlw	48
  5822   001C16  6E1D               	movwf	(get_data@dwn_data+12)^0,c
  5823   001C18                     
  5824                           ;menu.c: 347:         dwn_data[13]=((temp%10)+48);
  5825   001C18  C023  F001         	movff	get_data@temp,___awmod@dividend
  5826   001C1C  6A02               	clrf	(___awmod@dividend+1)^0,c
  5827   001C1E  0E00               	movlw	0
  5828   001C20  6E04               	movwf	(___awmod@divisor+1)^0,c
  5829   001C22  0E0A               	movlw	10
  5830   001C24  6E03               	movwf	___awmod@divisor^0,c
  5831   001C26  ECDB  F011         	call	___awmod	;wreg free
  5832   001C2A  5001               	movf	?___awmod^0,w,c
  5833   001C2C  0F30               	addlw	48
  5834   001C2E  6E1E               	movwf	(get_data@dwn_data+13)^0,c
  5835   001C30                     
  5836                           ;menu.c: 349:         dwn_data[15]='\0';
  5837   001C30  0E00               	movlw	0
  5838   001C32  6E20               	movwf	(get_data@dwn_data+15)^0,c
  5839   001C34                     
  5840                           ;menu.c: 351:         puts(dwn_data);
  5841   001C34  0E11               	movlw	low get_data@dwn_data
  5842   001C36  6E02               	movwf	puts@s^0,c
  5843   001C38  0E00               	movlw	high get_data@dwn_data
  5844   001C3A  6E03               	movwf	(puts@s+1)^0,c
  5845   001C3C  EC4A  F014         	call	_puts	;wreg free
  5846   001C40                     
  5847                           ;menu.c: 352:         puts("\n\r");
  5848   001C40  0EFC               	movlw	low STR_24
  5849   001C42  6E02               	movwf	puts@s^0,c
  5850   001C44  0E2F               	movlw	high STR_24
  5851   001C46  6E03               	movwf	(puts@s+1)^0,c
  5852   001C48  EC4A  F014         	call	_puts	;wreg free
  5853   001C4C                     
  5854                           ;menu.c: 353:     }
  5855   001C4C  2A21               	incf	get_data@ind^0,f,c
  5856   001C4E                     l3370:
  5857   001C4E  5047               	movf	_log_count^0,w,c
  5858   001C50  5C21               	subwf	get_data@ind^0,w,c
  5859   001C52  A0D8               	btfss	status,0,c
  5860   001C54  EF2E  F00E         	goto	u2551
  5861   001C58  EF30  F00E         	goto	u2550
  5862   001C5C                     u2551:
  5863   001C5C  EF71  F00D         	goto	l3318
  5864   001C60                     u2550:
  5865   001C60                     l430:
  5866   001C60  0012               	return		;funcret
  5867   001C62                     __end_of_get_data:
  5868                           	callstack 0
  5869                           
  5870 ;; *************** function _read_external_eeprom *****************
  5871 ;; Defined at:
  5872 ;;		line 59 in file "ext_eeprom.c"
  5873 ;; Parameters:    Size  Location     Type
  5874 ;;  address         1    wreg     unsigned char 
  5875 ;; Auto vars:     Size  Location     Type
  5876 ;;  address         1    1[COMRAM] unsigned char 
  5877 ;;  data            1    2[COMRAM] unsigned char 
  5878 ;; Return value:  Size  Location     Type
  5879 ;;                  1    wreg      unsigned char 
  5880 ;; Registers used:
  5881 ;;		wreg, status,2, cstack
  5882 ;; Tracked objects:
  5883 ;;		On entry : 0/0
  5884 ;;		On exit  : 0/0
  5885 ;;		Unchanged: 0/0
  5886 ;; Data sizes:     COMRAM   BANK0   BANK1   BANK2   BANK3   BANK4   BANK5
  5887 ;;      Params:         0       0       0       0       0       0       0
  5888 ;;      Locals:         2       0       0       0       0       0       0
  5889 ;;      Temps:          0       0       0       0       0       0       0
  5890 ;;      Totals:         2       0       0       0       0       0       0
  5891 ;;Total ram usage:        2 bytes
  5892 ;; Hardware stack levels used: 1
  5893 ;; Hardware stack levels required when called: 4
  5894 ;; This function calls:
  5895 ;;		_i2c_read
  5896 ;;		_i2c_rep_start
  5897 ;;		_i2c_start
  5898 ;;		_i2c_stop
  5899 ;;		_i2c_write
  5900 ;; This function is called by:
  5901 ;;		_read_password
  5902 ;;		_display_menu
  5903 ;;		_view_log
  5904 ;;		_get_data
  5905 ;;		_store_eeprom
  5906 ;; This function uses a non-reentrant model
  5907 ;;
  5908                           
  5909                           	psect	text20
  5910   002B14                     __ptext20:
  5911                           	callstack 0
  5912   002B14                     _read_external_eeprom:
  5913                           	callstack 24
  5914                           
  5915                           ;incstack = 0
  5916                           ;read_external_eeprom@address stored from wreg
  5917   002B14  6E02               	movwf	read_external_eeprom@address^0,c
  5918   002B16                     
  5919                           ;ext_eeprom.c: 59: unsigned char read_external_eeprom(unsigned char address);ext_eeprom.
      +                          c: 60: {;ext_eeprom.c: 61:  unsigned char data;;ext_eeprom.c: 63:  i2c_start();
  5920   002B16  EC60  F016         	call	_i2c_start	;wreg free
  5921   002B1A                     
  5922                           ;ext_eeprom.c: 64:  i2c_write(0xA0);
  5923   002B1A  0EA0               	movlw	160
  5924   002B1C  EC50  F016         	call	_i2c_write
  5925   002B20                     
  5926                           ;ext_eeprom.c: 65:  i2c_write(address);
  5927   002B20  5002               	movf	read_external_eeprom@address^0,w,c
  5928   002B22  EC50  F016         	call	_i2c_write
  5929   002B26                     
  5930                           ;ext_eeprom.c: 66:  i2c_rep_start();
  5931   002B26  EC64  F016         	call	_i2c_rep_start	;wreg free
  5932   002B2A                     
  5933                           ;ext_eeprom.c: 67:  i2c_write(0xA1);
  5934   002B2A  0EA1               	movlw	161
  5935   002B2C  EC50  F016         	call	_i2c_write
  5936                           
  5937                           ;ext_eeprom.c: 68:  data = i2c_read();
  5938   002B30  EC56  F016         	call	_i2c_read	;wreg free
  5939   002B34  6E03               	movwf	read_external_eeprom@data^0,c
  5940   002B36                     
  5941                           ;ext_eeprom.c: 69:  i2c_stop();
  5942   002B36  EC5C  F016         	call	_i2c_stop	;wreg free
  5943                           
  5944                           ;ext_eeprom.c: 71:  return data;
  5945   002B3A  5003               	movf	read_external_eeprom@data^0,w,c
  5946   002B3C  0012               	return		;funcret
  5947   002B3E                     __end_of_read_external_eeprom:
  5948                           	callstack 0
  5949                           
  5950 ;; *************** function _puts *****************
  5951 ;; Defined at:
  5952 ;;		line 40 in file "uart.c"
  5953 ;; Parameters:    Size  Location     Type
  5954 ;;  s               2    1[COMRAM] PTR const unsigned char 
  5955 ;;		 -> STR_27(3), get_data@dwn_data(16), STR_26(3), STR_25(15), 
  5956 ;;		 -> STR_24(3), STR_23(10), 
  5957 ;; Auto vars:     Size  Location     Type
  5958 ;;		None
  5959 ;; Return value:  Size  Location     Type
  5960 ;;                  2    1[COMRAM] int 
  5961 ;; Registers used:
  5962 ;;		wreg, fsr0l, fsr0h, status,2, status,0, tblptrl, tblptrh, tblptru, cstack
  5963 ;; Tracked objects:
  5964 ;;		On entry : 0/0
  5965 ;;		On exit  : 0/0
  5966 ;;		Unchanged: 0/0
  5967 ;; Data sizes:     COMRAM   BANK0   BANK1   BANK2   BANK3   BANK4   BANK5
  5968 ;;      Params:         2       0       0       0       0       0       0
  5969 ;;      Locals:         0       0       0       0       0       0       0
  5970 ;;      Temps:          0       0       0       0       0       0       0
  5971 ;;      Totals:         2       0       0       0       0       0       0
  5972 ;;Total ram usage:        2 bytes
  5973 ;; Hardware stack levels used: 1
  5974 ;; Hardware stack levels required when called: 2
  5975 ;; This function calls:
  5976 ;;		_putch
  5977 ;; This function is called by:
  5978 ;;		_get_data
  5979 ;; This function uses a non-reentrant model
  5980 ;;
  5981                           
  5982                           	psect	text21
  5983   002894                     __ptext21:
  5984                           	callstack 0
  5985   002894                     _puts:
  5986                           	callstack 23
  5987   002894                     
  5988                           ;uart.c: 40: int puts(const char *s);uart.c: 41: {;uart.c: 42:  while(*s)
  5989   002894  EF60  F014         	goto	l3160
  5990   002898                     l3156:
  5991                           
  5992                           ;uart.c: 43:  {;uart.c: 44:   putch(*s++);
  5993   002898  C002  FFF6         	movff	puts@s,tblptrl
  5994   00289C  C003  FFF7         	movff	puts@s+1,tblptrh
  5995   0028A0  6AF8               	clrf	tblptru,c
  5996   0028A2  0E05               	movlw	(high __ramtop+-1)
  5997   0028A4  64F7               	cpfsgt	tblptrh,c
  5998   0028A6  D003               	bra	u2277
  5999   0028A8  0008               	tblrd		*
  6000   0028AA  50F5               	movf	tablat,w,c
  6001   0028AC  D005               	bra	u2270
  6002   0028AE                     u2277:
  6003   0028AE  CFF6 FFE9          	movff	tblptrl,fsr0l
  6004   0028B2  CFF7 FFEA          	movff	tblptrh,fsr0h
  6005   0028B6  50EF               	movf	indf0,w,c
  6006   0028B8                     u2270:
  6007   0028B8  EC2A  F016         	call	_putch
  6008   0028BC  4A02               	infsnz	puts@s^0,f,c
  6009   0028BE  2A03               	incf	(puts@s+1)^0,f,c
  6010   0028C0                     l3160:
  6011                           
  6012                           ;uart.c: 42:  while(*s)
  6013   0028C0  C002  FFF6         	movff	puts@s,tblptrl
  6014   0028C4  C003  FFF7         	movff	puts@s+1,tblptrh
  6015   0028C8  6AF8               	clrf	tblptru,c
  6016   0028CA  0E05               	movlw	(high __ramtop+-1)
  6017   0028CC  64F7               	cpfsgt	tblptrh,c
  6018   0028CE  D003               	bra	u2287
  6019   0028D0  0008               	tblrd		*
  6020   0028D2  50F5               	movf	tablat,w,c
  6021   0028D4  D005               	bra	u2280
  6022   0028D6                     u2287:
  6023   0028D6  CFF6 FFE9          	movff	tblptrl,fsr0l
  6024   0028DA  CFF7 FFEA          	movff	tblptrh,fsr0h
  6025   0028DE  50EF               	movf	indf0,w,c
  6026   0028E0                     u2280:
  6027   0028E0  0900               	iorlw	0
  6028   0028E2  A4D8               	btfss	status,2,c
  6029   0028E4  EF76  F014         	goto	u2291
  6030   0028E8  EF78  F014         	goto	u2290
  6031   0028EC                     u2291:
  6032   0028EC  EF4C  F014         	goto	l3156
  6033   0028F0                     u2290:
  6034   0028F0  0012               	return		;funcret
  6035   0028F2                     __end_of_puts:
  6036                           	callstack 0
  6037                           
  6038 ;; *************** function _putch *****************
  6039 ;; Defined at:
  6040 ;;		line 29 in file "uart.c"
  6041 ;; Parameters:    Size  Location     Type
  6042 ;;  byte            1    wreg     unsigned char 
  6043 ;; Auto vars:     Size  Location     Type
  6044 ;;  byte            1    0[COMRAM] unsigned char 
  6045 ;; Return value:  Size  Location     Type
  6046 ;;                  1    wreg      void 
  6047 ;; Registers used:
  6048 ;;		wreg
  6049 ;; Tracked objects:
  6050 ;;		On entry : 0/0
  6051 ;;		On exit  : 0/0
  6052 ;;		Unchanged: 0/0
  6053 ;; Data sizes:     COMRAM   BANK0   BANK1   BANK2   BANK3   BANK4   BANK5
  6054 ;;      Params:         0       0       0       0       0       0       0
  6055 ;;      Locals:         1       0       0       0       0       0       0
  6056 ;;      Temps:          0       0       0       0       0       0       0
  6057 ;;      Totals:         1       0       0       0       0       0       0
  6058 ;;Total ram usage:        1 bytes
  6059 ;; Hardware stack levels used: 1
  6060 ;; Hardware stack levels required when called: 1
  6061 ;; This function calls:
  6062 ;;		Nothing
  6063 ;; This function is called by:
  6064 ;;		_puts
  6065 ;;		_getche
  6066 ;; This function uses a non-reentrant model
  6067 ;;
  6068                           
  6069                           	psect	text22
  6070   002C54                     __ptext22:
  6071                           	callstack 0
  6072   002C54                     _putch:
  6073                           	callstack 23
  6074                           
  6075                           ;incstack = 0
  6076                           ;putch@byte stored from wreg
  6077   002C54  6E01               	movwf	putch@byte^0,c
  6078   002C56                     l748:
  6079                           
  6080                           ;uart.c: 33:  while(!TXIF)
  6081   002C56  A89E               	btfss	3998,4,c	;volatile
  6082   002C58  EF30  F016         	goto	u2111
  6083   002C5C  EF32  F016         	goto	u2110
  6084   002C60                     u2111:
  6085   002C60  EF2B  F016         	goto	l748
  6086   002C64                     u2110:
  6087   002C64                     
  6088                           ;uart.c: 37:  TXREG = byte;
  6089   002C64  C001  FFAD         	movff	putch@byte,4013	;volatile
  6090   002C68  0012               	return		;funcret
  6091   002C6A                     __end_of_putch:
  6092                           	callstack 0
  6093                           
  6094 ;; *************** function _display_list *****************
  6095 ;; Defined at:
  6096 ;;		line 186 in file "menu.c"
  6097 ;; Parameters:    Size  Location     Type
  6098 ;;  menu_name       2   16[COMRAM] PTR PTR unsigned char 
  6099 ;;		 -> menu_name(10), 
  6100 ;;  list_index      1   18[COMRAM] unsigned char 
  6101 ;;  direction_fl    1   19[COMRAM] unsigned char 
  6102 ;; Auto vars:     Size  Location     Type
  6103 ;;		None
  6104 ;; Return value:  Size  Location     Type
  6105 ;;                  1    wreg      void 
  6106 ;; Registers used:
  6107 ;;		wreg, fsr0l, fsr0h, fsr2l, fsr2h, status,2, status,0, tblptrl, tblptrh, tblptru, prodl, prodh, cstack
  6108 ;; Tracked objects:
  6109 ;;		On entry : 0/0
  6110 ;;		On exit  : 0/0
  6111 ;;		Unchanged: 0/0
  6112 ;; Data sizes:     COMRAM   BANK0   BANK1   BANK2   BANK3   BANK4   BANK5
  6113 ;;      Params:         4       0       0       0       0       0       0
  6114 ;;      Locals:         0       0       0       0       0       0       0
  6115 ;;      Temps:          4       0       0       0       0       0       0
  6116 ;;      Totals:         8       0       0       0       0       0       0
  6117 ;;Total ram usage:        8 bytes
  6118 ;; Hardware stack levels used: 1
  6119 ;; Hardware stack levels required when called: 3
  6120 ;; This function calls:
  6121 ;;		_clcd_print
  6122 ;;		_clcd_putch
  6123 ;; This function is called by:
  6124 ;;		_display_menu
  6125 ;; This function uses a non-reentrant model
  6126 ;;
  6127                           
  6128                           	psect	text23
  6129   00222C                     __ptext23:
  6130                           	callstack 0
  6131   00222C                     _display_list:
  6132                           	callstack 24
  6133   00222C                     
  6134                           ;menu.c: 186: void display_list(char *menu_name[],char list_index,char direction_flag);m
      +                          enu.c: 187: {;menu.c: 189:     if(direction_flag)
  6135   00222C  5014               	movf	display_list@direction_flag^0,w,c
  6136   00222E  B4D8               	btfsc	status,2,c
  6137   002230  EF1C  F011         	goto	u2951
  6138   002234  EF1E  F011         	goto	u2950
  6139   002238                     u2951:
  6140   002238  EF58  F011         	goto	l3752
  6141   00223C                     u2950:
  6142   00223C                     
  6143                           ;menu.c: 190:     {;menu.c: 191:         clcd_putch('*',(0x80 + (0)));
  6144   00223C  0E80               	movlw	128
  6145   00223E  6E0F               	movwf	clcd_putch@addr^0,c
  6146   002240  0E2A               	movlw	42
  6147   002242  EC13  F016         	call	_clcd_putch
  6148   002246                     
  6149                           ;menu.c: 192:         clcd_print(menu_name[list_index],(0x80 + (1)));
  6150   002246  5013               	movf	display_list@list_index^0,w,c
  6151   002248  0D02               	mullw	2
  6152   00224A  CFF3 F015          	movff	prodl,??_display_list
  6153   00224E  CFF4 F016          	movff	prodh,??_display_list+1
  6154   002252  5015               	movf	??_display_list^0,w,c
  6155   002254  2411               	addwf	display_list@menu_name^0,w,c
  6156   002256  6ED9               	movwf	fsr2l,c
  6157   002258  5016               	movf	(??_display_list+1)^0,w,c
  6158   00225A  2012               	addwfc	(display_list@menu_name+1)^0,w,c
  6159   00225C  6EDA               	movwf	fsr2h,c
  6160   00225E  CFDE F003          	movff	postinc2,clcd_print@data
  6161   002262  CFDD F004          	movff	postdec2,clcd_print@data+1
  6162   002266  0E81               	movlw	129
  6163   002268  6E05               	movwf	clcd_print@addr^0,c
  6164   00226A  ECAF  F013         	call	_clcd_print	;wreg free
  6165   00226E                     
  6166                           ;menu.c: 193:         clcd_putch(' ',(0xC0 + (0)));
  6167   00226E  0EC0               	movlw	192
  6168   002270  6E0F               	movwf	clcd_putch@addr^0,c
  6169   002272  0E20               	movlw	32
  6170   002274  EC13  F016         	call	_clcd_putch
  6171   002278                     l3750:
  6172                           
  6173                           ;menu.c: 194:         clcd_print(menu_name[list_index+1],(0xC0 + (1)));
  6174   002278  5013               	movf	display_list@list_index^0,w,c
  6175   00227A  6E15               	movwf	??_display_list^0,c
  6176   00227C  6A16               	clrf	(??_display_list+1)^0,c
  6177   00227E  90D8               	bcf	status,0,c
  6178   002280  3615               	rlcf	??_display_list^0,f,c
  6179   002282  3616               	rlcf	(??_display_list+1)^0,f,c
  6180   002284  5015               	movf	??_display_list^0,w,c
  6181   002286  2411               	addwf	display_list@menu_name^0,w,c
  6182   002288  6E17               	movwf	(??_display_list+2)^0,c
  6183   00228A  5016               	movf	(??_display_list+1)^0,w,c
  6184   00228C  2012               	addwfc	(display_list@menu_name+1)^0,w,c
  6185   00228E  6E18               	movwf	(??_display_list+3)^0,c
  6186   002290  0E02               	movlw	2
  6187   002292  2417               	addwf	(??_display_list+2)^0,w,c
  6188   002294  6ED9               	movwf	fsr2l,c
  6189   002296  0E00               	movlw	0
  6190   002298  2018               	addwfc	(??_display_list+3)^0,w,c
  6191   00229A  6EDA               	movwf	fsr2h,c
  6192   00229C  CFDE F003          	movff	postinc2,clcd_print@data
  6193   0022A0  CFDD F004          	movff	postdec2,clcd_print@data+1
  6194   0022A4  0EC1               	movlw	193
  6195   0022A6  6E05               	movwf	clcd_print@addr^0,c
  6196   0022A8  ECAF  F013         	call	_clcd_print	;wreg free
  6197                           
  6198                           ;menu.c: 195:     }
  6199   0022AC  EF78  F011         	goto	l401
  6200   0022B0                     l3752:
  6201                           
  6202                           ;menu.c: 197:     {;menu.c: 198:         clcd_putch('*',(0xC0 + (0)));
  6203   0022B0  0EC0               	movlw	192
  6204   0022B2  6E0F               	movwf	clcd_putch@addr^0,c
  6205   0022B4  0E2A               	movlw	42
  6206   0022B6  EC13  F016         	call	_clcd_putch
  6207                           
  6208                           ;menu.c: 199:         clcd_putch(' ',(0x80 + (0)));
  6209   0022BA  0E80               	movlw	128
  6210   0022BC  6E0F               	movwf	clcd_putch@addr^0,c
  6211   0022BE  0E20               	movlw	32
  6212   0022C0  EC13  F016         	call	_clcd_putch
  6213   0022C4                     
  6214                           ;menu.c: 200:         clcd_print(menu_name[list_index],(0x80 + (1)));
  6215   0022C4  5013               	movf	display_list@list_index^0,w,c
  6216   0022C6  0D02               	mullw	2
  6217   0022C8  CFF3 F015          	movff	prodl,??_display_list
  6218   0022CC  CFF4 F016          	movff	prodh,??_display_list+1
  6219   0022D0  5015               	movf	??_display_list^0,w,c
  6220   0022D2  2411               	addwf	display_list@menu_name^0,w,c
  6221   0022D4  6ED9               	movwf	fsr2l,c
  6222   0022D6  5016               	movf	(??_display_list+1)^0,w,c
  6223   0022D8  2012               	addwfc	(display_list@menu_name+1)^0,w,c
  6224   0022DA  6EDA               	movwf	fsr2h,c
  6225   0022DC  CFDE F003          	movff	postinc2,clcd_print@data
  6226   0022E0  CFDD F004          	movff	postdec2,clcd_print@data+1
  6227   0022E4  0E81               	movlw	129
  6228   0022E6  6E05               	movwf	clcd_print@addr^0,c
  6229   0022E8  ECAF  F013         	call	_clcd_print	;wreg free
  6230   0022EC  EF3C  F011         	goto	l3750
  6231   0022F0                     l401:
  6232   0022F0  0012               	return		;funcret
  6233   0022F2                     __end_of_display_list:
  6234                           	callstack 0
  6235                           
  6236 ;; *************** function _clear_log *****************
  6237 ;; Defined at:
  6238 ;;		line 255 in file "menu.c"
  6239 ;; Parameters:    Size  Location     Type
  6240 ;;		None
  6241 ;; Auto vars:     Size  Location     Type
  6242 ;;		None
  6243 ;; Return value:  Size  Location     Type
  6244 ;;                  1    wreg      void 
  6245 ;; Registers used:
  6246 ;;		wreg, fsr0l, fsr0h, status,2, status,0, tblptrl, tblptrh, tblptru, cstack
  6247 ;; Tracked objects:
  6248 ;;		On entry : 0/0
  6249 ;;		On exit  : 0/0
  6250 ;;		Unchanged: 0/0
  6251 ;; Data sizes:     COMRAM   BANK0   BANK1   BANK2   BANK3   BANK4   BANK5
  6252 ;;      Params:         0       0       0       0       0       0       0
  6253 ;;      Locals:         0       0       0       0       0       0       0
  6254 ;;      Temps:          0       0       0       0       0       0       0
  6255 ;;      Totals:         0       0       0       0       0       0       0
  6256 ;;Total ram usage:        0 bytes
  6257 ;; Hardware stack levels used: 1
  6258 ;; Hardware stack levels required when called: 4
  6259 ;; This function calls:
  6260 ;;		_clcd_print
  6261 ;;		_write_external_eeprom
  6262 ;; This function is called by:
  6263 ;;		_display_menu
  6264 ;; This function uses a non-reentrant model
  6265 ;;
  6266                           
  6267                           	psect	text24
  6268   002466                     __ptext24:
  6269                           	callstack 0
  6270   002466                     _clear_log:
  6271                           	callstack 23
  6272   002466                     
  6273                           ;menu.c: 257:     clcd_print("   CLEAR  LOG   ",(0x80 + (0)));
  6274   002466  0E73               	movlw	low STR_19
  6275   002468  6E03               	movwf	clcd_print@data^0,c
  6276   00246A  0E2E               	movlw	high STR_19
  6277   00246C  6E04               	movwf	(clcd_print@data+1)^0,c
  6278   00246E  0E80               	movlw	128
  6279   002470  6E05               	movwf	clcd_print@addr^0,c
  6280   002472  ECAF  F013         	call	_clcd_print	;wreg free
  6281                           
  6282                           ;menu.c: 258:     clcd_print("   SUCCESSFUL   ",(0xC0 + (0)));
  6283   002476  0E84               	movlw	low STR_20
  6284   002478  6E03               	movwf	clcd_print@data^0,c
  6285   00247A  0E2E               	movlw	high STR_20
  6286   00247C  6E04               	movwf	(clcd_print@data+1)^0,c
  6287   00247E  0EC0               	movlw	192
  6288   002480  6E05               	movwf	clcd_print@addr^0,c
  6289   002482  ECAF  F013         	call	_clcd_print	;wreg free
  6290   002486                     
  6291                           ;menu.c: 261:     flag_5_sec = 0;
  6292   002486  0E00               	movlw	0
  6293   002488  6E50               	movwf	_flag_5_sec^0,c
  6294   00248A                     
  6295                           ;menu.c: 262:     TMR0 = 6;
  6296   00248A  0E00               	movlw	0
  6297   00248C  6ED7               	movwf	215,c	;volatile
  6298   00248E  0E06               	movlw	6
  6299   002490  6ED6               	movwf	214,c	;volatile
  6300   002492                     
  6301                           ;menu.c: 263:     TMR0IF = 0;
  6302   002492  94F2               	bcf	4082,2,c	;volatile
  6303   002494                     
  6304                           ;menu.c: 264:     count=0;
  6305   002494  0E00               	movlw	0
  6306   002496  0100               	movlb	0	; () banked
  6307   002498  6FB4               	movwf	_count& (0+255),b
  6308   00249A  0E00               	movlw	0
  6309   00249C  6FB5               	movwf	(_count+1)& (0+255),b
  6310   00249E  0E00               	movlw	0
  6311   0024A0  6FB6               	movwf	(_count+2)& (0+255),b
  6312   0024A2  0E00               	movlw	0
  6313   0024A4  6FB7               	movwf	(_count+3)& (0+255),b
  6314   0024A6                     
  6315                           ; BSR set to: 0
  6316                           ;menu.c: 265:     TMR0IE = 1;
  6317   0024A6  8AF2               	bsf	4082,5,c	;volatile
  6318   0024A8                     l3456:
  6319   0024A8  5050               	movf	_flag_5_sec^0,w,c
  6320   0024AA  B4D8               	btfsc	status,2,c
  6321   0024AC  EF5A  F012         	goto	u2581
  6322   0024B0  EF5C  F012         	goto	u2580
  6323   0024B4                     u2581:
  6324   0024B4  EF54  F012         	goto	l3456
  6325   0024B8                     u2580:
  6326   0024B8                     
  6327                           ;menu.c: 267:     TMR0IE = 0;
  6328   0024B8  9AF2               	bcf	4082,5,c	;volatile
  6329   0024BA                     
  6330                           ;menu.c: 268:     flag_5_sec = 0;
  6331   0024BA  0E00               	movlw	0
  6332   0024BC  6E50               	movwf	_flag_5_sec^0,c
  6333                           
  6334                           ;menu.c: 269:     flag_1_sec = 0;
  6335   0024BE  0E00               	movlw	0
  6336   0024C0  6E58               	movwf	_flag_1_sec^0,c
  6337                           
  6338                           ;menu.c: 270:     TMR0 = 6;
  6339   0024C2  0E00               	movlw	0
  6340   0024C4  6ED7               	movwf	215,c	;volatile
  6341   0024C6  0E06               	movlw	6
  6342   0024C8  6ED6               	movwf	214,c	;volatile
  6343   0024CA                     
  6344                           ;menu.c: 271:     TMR0IF = 0;
  6345   0024CA  94F2               	bcf	4082,2,c	;volatile
  6346                           
  6347                           ;menu.c: 272:     min_count = 0;
  6348   0024CC  0E00               	movlw	0
  6349   0024CE  0100               	movlb	0	; () banked
  6350   0024D0  6FC3               	movwf	(_min_count+1)& (0+255),b
  6351   0024D2  0E00               	movlw	0
  6352   0024D4  6FC2               	movwf	_min_count& (0+255),b
  6353                           
  6354                           ;menu.c: 273:     count=0;
  6355   0024D6  0E00               	movlw	0
  6356   0024D8  6FB4               	movwf	_count& (0+255),b
  6357   0024DA  0E00               	movlw	0
  6358   0024DC  6FB5               	movwf	(_count+1)& (0+255),b
  6359   0024DE  0E00               	movlw	0
  6360   0024E0  6FB6               	movwf	(_count+2)& (0+255),b
  6361   0024E2  0E00               	movlw	0
  6362   0024E4  6FB7               	movwf	(_count+3)& (0+255),b
  6363   0024E6                     
  6364                           ; BSR set to: 0
  6365                           ;menu.c: 274:     write_external_eeprom(0x33,0);
  6366   0024E6  0E00               	movlw	0
  6367   0024E8  6E02               	movwf	write_external_eeprom@data^0,c
  6368   0024EA  0E33               	movlw	51
  6369   0024EC  EC12  F015         	call	_write_external_eeprom
  6370   0024F0  0012               	return		;funcret
  6371   0024F2                     __end_of_clear_log:
  6372                           	callstack 0
  6373                           
  6374 ;; *************** function _change_password *****************
  6375 ;; Defined at:
  6376 ;;		line 563 in file "menu.c"
  6377 ;; Parameters:    Size  Location     Type
  6378 ;;  key             1    wreg     unsigned char 
  6379 ;; Auto vars:     Size  Location     Type
  6380 ;;  key             1   11[COMRAM] unsigned char 
  6381 ;;  psw_key         1   10[COMRAM] unsigned char 
  6382 ;; Return value:  Size  Location     Type
  6383 ;;                  1    wreg      void 
  6384 ;; Registers used:
  6385 ;;		wreg, fsr0l, fsr0h, fsr1l, fsr1h, fsr2l, fsr2h, status,2, status,0, tblptrl, tblptrh, tblptru, cstack
  6386 ;; Tracked objects:
  6387 ;;		On entry : 0/0
  6388 ;;		On exit  : 0/0
  6389 ;;		Unchanged: 0/0
  6390 ;; Data sizes:     COMRAM   BANK0   BANK1   BANK2   BANK3   BANK4   BANK5
  6391 ;;      Params:         0       0       0       0       0       0       0
  6392 ;;      Locals:         2       0       0       0       0       0       0
  6393 ;;      Temps:          2       0       0       0       0       0       0
  6394 ;;      Totals:         4       0       0       0       0       0       0
  6395 ;;Total ram usage:        4 bytes
  6396 ;; Hardware stack levels used: 1
  6397 ;; Hardware stack levels required when called: 4
  6398 ;; This function calls:
  6399 ;;		_clcd_print
  6400 ;;		_read_switches
  6401 ;;		_strcmp
  6402 ;;		_strcpy
  6403 ;;		_write_external_eeprom
  6404 ;; This function is called by:
  6405 ;;		_display_menu
  6406 ;; This function uses a non-reentrant model
  6407 ;;
  6408                           
  6409                           	psect	text25
  6410   0005F0                     __ptext25:
  6411                           	callstack 0
  6412   0005F0                     _change_password:
  6413                           	callstack 23
  6414                           
  6415                           ;incstack = 0
  6416                           ;change_password@key stored from wreg
  6417   0005F0  6E0C               	movwf	change_password@key^0,c
  6418   0005F2                     
  6419                           ;menu.c: 563: void change_password(unsigned char key);menu.c: 564: {;menu.c: 566:     st
      +                          atic unsigned char psw_ind=0;;menu.c: 567:     static unsigned char chng_psw[5]="",chng_
      +                          psw_temp[5]="",chng_psw_star[6]="    ",chng_psw_temp_star[6]="    ";;menu.c: 570:     if
      +                          (psw_ind >= 4)
  6420   0005F2  0E03               	movlw	3
  6421   0005F4  6442               	cpfsgt	change_password@psw_ind^0,c
  6422   0005F6  EFFF  F002         	goto	u2821
  6423   0005FA  EF01  F003         	goto	u2820
  6424   0005FE                     u2821:
  6425   0005FE  EFEC  F004         	goto	l3726
  6426   000602                     u2820:
  6427   000602                     
  6428                           ;menu.c: 571:     {;menu.c: 573:         if(psw_ind == 8)
  6429   000602  0E08               	movlw	8
  6430   000604  1842               	xorwf	change_password@psw_ind^0,w,c
  6431   000606  A4D8               	btfss	status,2,c
  6432   000608  EF08  F003         	goto	u2831
  6433   00060C  EF0A  F003         	goto	u2830
  6434   000610                     u2831:
  6435   000610  EF7D  F004         	goto	l3710
  6436   000614                     u2830:
  6437   000614                     
  6438                           ;menu.c: 574:         {;menu.c: 576:             if(strcmp(chng_psw,chng_psw_temp) == 0)
  6439   000614  0EC9               	movlw	low change_password@chng_psw
  6440   000616  6E01               	movwf	strcmp@l^0,c
  6441   000618  0E00               	movlw	high change_password@chng_psw
  6442   00061A  6E02               	movwf	(strcmp@l+1)^0,c
  6443   00061C  0EC4               	movlw	low change_password@chng_psw_temp
  6444   00061E  6E03               	movwf	strcmp@r^0,c
  6445   000620  0E00               	movlw	high change_password@chng_psw_temp
  6446   000622  6E04               	movwf	(strcmp@r+1)^0,c
  6447   000624  EC79  F013         	call	_strcmp	;wreg free
  6448   000628  5001               	movf	?_strcmp^0,w,c
  6449   00062A  1002               	iorwf	(?_strcmp+1)^0,w,c
  6450   00062C  A4D8               	btfss	status,2,c
  6451   00062E  EF1B  F003         	goto	u2841
  6452   000632  EF1D  F003         	goto	u2840
  6453   000636                     u2841:
  6454   000636  EF13  F004         	goto	l3684
  6455   00063A                     u2840:
  6456   00063A                     
  6457                           ;menu.c: 577:             {;menu.c: 578:                 unsigned char psw_key = read_sw
      +                          itches(0);
  6458   00063A  0E00               	movlw	0
  6459   00063C  EC3E  F013         	call	_read_switches
  6460   000640  6E0B               	movwf	change_password@psw_key^0,c
  6461   000642                     
  6462                           ;menu.c: 579:                 static chng_delay1=0,chng_delay2=0;;menu.c: 580:          
      +                                 clcd_print(" CONFIRM CHANGE ",(0x80 + (0)));
  6463   000642  0ED9               	movlw	low STR_32
  6464   000644  6E03               	movwf	clcd_print@data^0,c
  6465   000646  0E2E               	movlw	high STR_32
  6466   000648  6E04               	movwf	(clcd_print@data+1)^0,c
  6467   00064A  0E80               	movlw	128
  6468   00064C  6E05               	movwf	clcd_print@addr^0,c
  6469   00064E  ECAF  F013         	call	_clcd_print	;wreg free
  6470   000652                     
  6471                           ;menu.c: 581:                 clcd_print(" Y = 5 or N = 6 ",(0xC0 + (0)));
  6472   000652  0EC8               	movlw	low STR_33
  6473   000654  6E03               	movwf	clcd_print@data^0,c
  6474   000656  0E2E               	movlw	high STR_33
  6475   000658  6E04               	movwf	(clcd_print@data+1)^0,c
  6476   00065A  0EC0               	movlw	192
  6477   00065C  6E05               	movwf	clcd_print@addr^0,c
  6478   00065E  ECAF  F013         	call	_clcd_print	;wreg free
  6479   000662                     
  6480                           ;menu.c: 584:                 if(psw_key== 5 && chng_delay1++ >2000)
  6481   000662  0E05               	movlw	5
  6482   000664  180B               	xorwf	change_password@psw_key^0,w,c
  6483   000666  A4D8               	btfss	status,2,c
  6484   000668  EF38  F003         	goto	u2851
  6485   00066C  EF3A  F003         	goto	u2850
  6486   000670                     u2851:
  6487   000670  EFDF  F003         	goto	l3676
  6488   000674                     u2850:
  6489   000674  0100               	movlb	0	; () banked
  6490   000676  51BA               	movf	change_password@chng_delay1& (0+255),w,b
  6491   000678  6E09               	movwf	??_change_password^0,c
  6492   00067A  51BB               	movf	(change_password@chng_delay1+1)& (0+255),w,b
  6493   00067C  6E0A               	movwf	(??_change_password+1)^0,c
  6494   00067E  4BBA               	infsnz	change_password@chng_delay1& (0+255),f,b
  6495   000680  2BBB               	incf	(change_password@chng_delay1+1)& (0+255),f,b
  6496   000682  BE0A               	btfsc	(??_change_password+1)^0,7,c
  6497   000684  EF4D  F003         	goto	u2861
  6498   000688  0ED1               	movlw	209
  6499   00068A  5C09               	subwf	??_change_password^0,w,c
  6500   00068C  0E07               	movlw	7
  6501   00068E  580A               	subwfb	(??_change_password+1)^0,w,c
  6502   000690  A0D8               	btfss	status,0,c
  6503   000692  EF4D  F003         	goto	u2861
  6504   000696  EF4F  F003         	goto	u2860
  6505   00069A                     u2861:
  6506   00069A  EFDF  F003         	goto	l3676
  6507   00069E                     u2860:
  6508   00069E                     
  6509                           ; BSR set to: 0
  6510                           ;menu.c: 585:                 {;menu.c: 586:                     write_external_eeprom(0
      +                          x34,chng_psw[0]-48);
  6511   00069E  51C9               	movf	change_password@chng_psw& (0+255),w,b
  6512   0006A0  0FD0               	addlw	208
  6513   0006A2  6E02               	movwf	write_external_eeprom@data^0,c
  6514   0006A4  0E34               	movlw	52
  6515   0006A6  EC12  F015         	call	_write_external_eeprom
  6516                           
  6517                           ;menu.c: 587:                     write_external_eeprom(0x34 +1,chng_psw[1]-48);
  6518   0006AA  0100               	movlb	0	; () banked
  6519   0006AC  51CA               	movf	(change_password@chng_psw+1)& (0+255),w,b
  6520   0006AE  0FD0               	addlw	208
  6521   0006B0  6E02               	movwf	write_external_eeprom@data^0,c
  6522   0006B2  0E35               	movlw	53
  6523   0006B4  EC12  F015         	call	_write_external_eeprom
  6524                           
  6525                           ;menu.c: 588:                     write_external_eeprom(0x34 +2,chng_psw[2]-48);
  6526   0006B8  0100               	movlb	0	; () banked
  6527   0006BA  51CB               	movf	(change_password@chng_psw+2)& (0+255),w,b
  6528   0006BC  0FD0               	addlw	208
  6529   0006BE  6E02               	movwf	write_external_eeprom@data^0,c
  6530   0006C0  0E36               	movlw	54
  6531   0006C2  EC12  F015         	call	_write_external_eeprom
  6532                           
  6533                           ;menu.c: 589:                     write_external_eeprom(0x34 +3,chng_psw[3]-48);
  6534   0006C6  0100               	movlb	0	; () banked
  6535   0006C8  51CC               	movf	(change_password@chng_psw+3)& (0+255),w,b
  6536   0006CA  0FD0               	addlw	208
  6537   0006CC  6E02               	movwf	write_external_eeprom@data^0,c
  6538   0006CE  0E37               	movlw	55
  6539   0006D0  EC12  F015         	call	_write_external_eeprom
  6540   0006D4                     
  6541                           ;menu.c: 591:                     log_flag = 0;
  6542   0006D4  0E00               	movlw	0
  6543   0006D6  6E46               	movwf	_log_flag^0,c
  6544   0006D8                     
  6545                           ;menu.c: 592:                     list_index = 0;
  6546   0006D8  0E00               	movlw	0
  6547   0006DA  6E4B               	movwf	_list_index^0,c
  6548   0006DC                     
  6549                           ;menu.c: 593:                     menu_pos = 0;
  6550   0006DC  0E00               	movlw	0
  6551   0006DE  6E49               	movwf	_menu_pos^0,c
  6552   0006E0                     
  6553                           ;menu.c: 594:                     direction_flag =1;
  6554   0006E0  0E01               	movlw	1
  6555   0006E2  6E56               	movwf	_direction_flag^0,c
  6556   0006E4                     
  6557                           ;menu.c: 595:                     psw_index=0;
  6558   0006E4  0E00               	movlw	0
  6559   0006E6  6E3F               	movwf	(_psw_index+1)^0,c
  6560   0006E8  0E00               	movlw	0
  6561   0006EA  6E3E               	movwf	_psw_index^0,c
  6562   0006EC                     
  6563                           ;menu.c: 596:                     psw_ind=0;
  6564   0006EC  0E00               	movlw	0
  6565   0006EE  6E42               	movwf	change_password@psw_ind^0,c
  6566   0006F0                     
  6567                           ;menu.c: 597:                     login_success=0;
  6568   0006F0  0E00               	movlw	0
  6569   0006F2  6E4C               	movwf	_login_success^0,c
  6570   0006F4                     
  6571                           ;menu.c: 598:                     psw_mode_flag=0;
  6572   0006F4  0E00               	movlw	0
  6573   0006F6  6E4D               	movwf	_psw_mode_flag^0,c
  6574   0006F8                     
  6575                           ;menu.c: 599:                     chng_delay1=0;
  6576   0006F8  0E00               	movlw	0
  6577   0006FA  0100               	movlb	0	; () banked
  6578   0006FC  6FBB               	movwf	(change_password@chng_delay1+1)& (0+255),b
  6579   0006FE  0E00               	movlw	0
  6580   000700  6FBA               	movwf	change_password@chng_delay1& (0+255),b
  6581   000702                     
  6582                           ; BSR set to: 0
  6583                           ;menu.c: 600:                     strcpy(psw_star,"    ");
  6584   000702  0EA6               	movlw	low _psw_star
  6585   000704  6E01               	movwf	strcpy@dest^0,c
  6586   000706  0E00               	movlw	high _psw_star
  6587   000708  6E02               	movwf	(strcpy@dest+1)^0,c
  6588   00070A  0EC6               	movlw	low (STR_10+8)
  6589   00070C  6E03               	movwf	strcpy@src^0,c
  6590   00070E  0E2F               	movlw	high (STR_10+8)
  6591   000710  6E04               	movwf	(strcpy@src+1)^0,c
  6592   000712  EC32  F015         	call	_strcpy	;wreg free
  6593   000716                     
  6594                           ;menu.c: 601:                     strcpy(chng_psw_star,"    ");
  6595   000716  0EA0               	movlw	low change_password@chng_psw_star
  6596   000718  6E01               	movwf	strcpy@dest^0,c
  6597   00071A  0E00               	movlw	high change_password@chng_psw_star
  6598   00071C  6E02               	movwf	(strcpy@dest+1)^0,c
  6599   00071E  0EC6               	movlw	low (STR_10+8)
  6600   000720  6E03               	movwf	strcpy@src^0,c
  6601   000722  0E2F               	movlw	high (STR_10+8)
  6602   000724  6E04               	movwf	(strcpy@src+1)^0,c
  6603   000726  EC32  F015         	call	_strcpy	;wreg free
  6604   00072A                     
  6605                           ;menu.c: 602:                     strcpy(chng_psw_temp_star,"    ");
  6606   00072A  0E9A               	movlw	low change_password@chng_psw_temp_star
  6607   00072C  6E01               	movwf	strcpy@dest^0,c
  6608   00072E  0E00               	movlw	high change_password@chng_psw_temp_star
  6609   000730  6E02               	movwf	(strcpy@dest+1)^0,c
  6610   000732  0EC6               	movlw	low (STR_10+8)
  6611   000734  6E03               	movwf	strcpy@src^0,c
  6612   000736  0E2F               	movlw	high (STR_10+8)
  6613   000738  6E04               	movwf	(strcpy@src+1)^0,c
  6614   00073A  EC32  F015         	call	_strcpy	;wreg free
  6615   00073E                     
  6616                           ;menu.c: 604:                     clcd_print("CHANAGE PASSWORD",(0x80 + (0)));
  6617   00073E  0EFB               	movlw	low STR_37
  6618   000740  6E03               	movwf	clcd_print@data^0,c
  6619   000742  0E2E               	movlw	high STR_37
  6620   000744  6E04               	movwf	(clcd_print@data+1)^0,c
  6621   000746  0E80               	movlw	128
  6622   000748  6E05               	movwf	clcd_print@addr^0,c
  6623   00074A  ECAF  F013         	call	_clcd_print	;wreg free
  6624   00074E                     
  6625                           ;menu.c: 605:                     clcd_print("   SUCCESSFUL   ",(0xC0 + (0)));
  6626   00074E  0E84               	movlw	low STR_20
  6627   000750  6E03               	movwf	clcd_print@data^0,c
  6628   000752  0E2E               	movlw	high STR_20
  6629   000754  6E04               	movwf	(clcd_print@data+1)^0,c
  6630   000756  0EC0               	movlw	192
  6631   000758  6E05               	movwf	clcd_print@addr^0,c
  6632   00075A  ECAF  F013         	call	_clcd_print	;wreg free
  6633   00075E                     
  6634                           ;menu.c: 607:                     flag_5_sec = 0;
  6635   00075E  0E00               	movlw	0
  6636   000760  6E50               	movwf	_flag_5_sec^0,c
  6637   000762                     
  6638                           ;menu.c: 608:                     TMR0 = 6;
  6639   000762  0E00               	movlw	0
  6640   000764  6ED7               	movwf	215,c	;volatile
  6641   000766  0E06               	movlw	6
  6642   000768  6ED6               	movwf	214,c	;volatile
  6643   00076A                     
  6644                           ;menu.c: 609:                     TMR0IF = 0;
  6645   00076A  94F2               	bcf	4082,2,c	;volatile
  6646   00076C                     
  6647                           ;menu.c: 610:                     count=0;
  6648   00076C  0E00               	movlw	0
  6649   00076E  0100               	movlb	0	; () banked
  6650   000770  6FB4               	movwf	_count& (0+255),b
  6651   000772  0E00               	movlw	0
  6652   000774  6FB5               	movwf	(_count+1)& (0+255),b
  6653   000776  0E00               	movlw	0
  6654   000778  6FB6               	movwf	(_count+2)& (0+255),b
  6655   00077A  0E00               	movlw	0
  6656   00077C  6FB7               	movwf	(_count+3)& (0+255),b
  6657   00077E                     
  6658                           ; BSR set to: 0
  6659                           ;menu.c: 611:                     TMR0IE = 1;
  6660   00077E  8AF2               	bsf	4082,5,c	;volatile
  6661   000780                     l3670:
  6662   000780  5050               	movf	_flag_5_sec^0,w,c
  6663   000782  B4D8               	btfsc	status,2,c
  6664   000784  EFC6  F003         	goto	u2871
  6665   000788  EFC8  F003         	goto	u2870
  6666   00078C                     u2871:
  6667   00078C  EFC0  F003         	goto	l3670
  6668   000790                     u2870:
  6669   000790                     
  6670                           ;menu.c: 613:                     TMR0IE = 0;
  6671   000790  9AF2               	bcf	4082,5,c	;volatile
  6672   000792                     
  6673                           ;menu.c: 614:                     flag_5_sec = 0;
  6674   000792  0E00               	movlw	0
  6675   000794  6E50               	movwf	_flag_5_sec^0,c
  6676                           
  6677                           ;menu.c: 615:                     flag_1_sec = 0;
  6678   000796  0E00               	movlw	0
  6679   000798  6E58               	movwf	_flag_1_sec^0,c
  6680                           
  6681                           ;menu.c: 616:                     TMR0 = 6;
  6682   00079A  0E00               	movlw	0
  6683   00079C  6ED7               	movwf	215,c	;volatile
  6684   00079E  0E06               	movlw	6
  6685   0007A0  6ED6               	movwf	214,c	;volatile
  6686   0007A2                     
  6687                           ;menu.c: 617:                     TMR0IF = 0;
  6688   0007A2  94F2               	bcf	4082,2,c	;volatile
  6689                           
  6690                           ;menu.c: 618:                     min_count = 0;
  6691   0007A4  0E00               	movlw	0
  6692   0007A6  0100               	movlb	0	; () banked
  6693   0007A8  6FC3               	movwf	(_min_count+1)& (0+255),b
  6694   0007AA  0E00               	movlw	0
  6695   0007AC  6FC2               	movwf	_min_count& (0+255),b
  6696                           
  6697                           ;menu.c: 619:                     count=0;
  6698   0007AE  0E00               	movlw	0
  6699   0007B0  6FB4               	movwf	_count& (0+255),b
  6700   0007B2  0E00               	movlw	0
  6701   0007B4  6FB5               	movwf	(_count+1)& (0+255),b
  6702   0007B6  0E00               	movlw	0
  6703   0007B8  6FB6               	movwf	(_count+2)& (0+255),b
  6704   0007BA  0E00               	movlw	0
  6705   0007BC  6FB7               	movwf	(_count+3)& (0+255),b
  6706   0007BE                     l3676:
  6707                           
  6708                           ;menu.c: 623:                 if(psw_key == 6 && chng_delay2++ >2000)
  6709   0007BE  0E06               	movlw	6
  6710   0007C0  180B               	xorwf	change_password@psw_key^0,w,c
  6711   0007C2  A4D8               	btfss	status,2,c
  6712   0007C4  EFE6  F003         	goto	u2881
  6713   0007C8  EFE8  F003         	goto	u2880
  6714   0007CC                     u2881:
  6715   0007CC  EFEA  F004         	goto	l501
  6716   0007D0                     u2880:
  6717   0007D0  0100               	movlb	0	; () banked
  6718   0007D2  51B8               	movf	change_password@chng_delay2& (0+255),w,b
  6719   0007D4  6E09               	movwf	??_change_password^0,c
  6720   0007D6  51B9               	movf	(change_password@chng_delay2+1)& (0+255),w,b
  6721   0007D8  6E0A               	movwf	(??_change_password+1)^0,c
  6722   0007DA  4BB8               	infsnz	change_password@chng_delay2& (0+255),f,b
  6723   0007DC  2BB9               	incf	(change_password@chng_delay2+1)& (0+255),f,b
  6724   0007DE  BE0A               	btfsc	(??_change_password+1)^0,7,c
  6725   0007E0  EFFB  F003         	goto	u2891
  6726   0007E4  0ED1               	movlw	209
  6727   0007E6  5C09               	subwf	??_change_password^0,w,c
  6728   0007E8  0E07               	movlw	7
  6729   0007EA  580A               	subwfb	(??_change_password+1)^0,w,c
  6730   0007EC  A0D8               	btfss	status,0,c
  6731   0007EE  EFFB  F003         	goto	u2891
  6732   0007F2  EFFD  F003         	goto	u2890
  6733   0007F6                     u2891:
  6734   0007F6  EFEA  F004         	goto	l501
  6735   0007FA                     u2890:
  6736   0007FA                     
  6737                           ; BSR set to: 0
  6738                           ;menu.c: 624:                 {;menu.c: 625:                     log_flag = 0;
  6739   0007FA  0E00               	movlw	0
  6740   0007FC  6E46               	movwf	_log_flag^0,c
  6741                           
  6742                           ;menu.c: 626:                     list_index = 0;
  6743   0007FE  0E00               	movlw	0
  6744   000800  6E4B               	movwf	_list_index^0,c
  6745                           
  6746                           ;menu.c: 627:                     menu_pos = 0;
  6747   000802  0E00               	movlw	0
  6748   000804  6E49               	movwf	_menu_pos^0,c
  6749                           
  6750                           ;menu.c: 628:                     direction_flag =1;
  6751   000806  0E01               	movlw	1
  6752   000808  6E56               	movwf	_direction_flag^0,c
  6753                           
  6754                           ;menu.c: 629:                     psw_ind=0;
  6755   00080A  0E00               	movlw	0
  6756   00080C  6E42               	movwf	change_password@psw_ind^0,c
  6757   00080E                     
  6758                           ; BSR set to: 0
  6759                           ;menu.c: 630:                     strcpy(psw_star,"    ");
  6760   00080E  0EA6               	movlw	low _psw_star
  6761   000810  6E01               	movwf	strcpy@dest^0,c
  6762   000812  0E00               	movlw	high _psw_star
  6763   000814  6E02               	movwf	(strcpy@dest+1)^0,c
  6764   000816  0EC6               	movlw	low (STR_10+8)
  6765   000818  6E03               	movwf	strcpy@src^0,c
  6766   00081A  0E2F               	movlw	high (STR_10+8)
  6767   00081C  6E04               	movwf	(strcpy@src+1)^0,c
  6768   00081E  EC32  F015         	call	_strcpy	;wreg free
  6769   000822  EF49  F005         	goto	l509
  6770   000826                     l3684:
  6771                           
  6772                           ;menu.c: 635:             {;menu.c: 636:                 clcd_print("  ENTERED PSWD  ",(
      +                          0x80 + (0)));
  6773   000826  0E95               	movlw	low STR_40
  6774   000828  6E03               	movwf	clcd_print@data^0,c
  6775   00082A  0E2E               	movlw	high STR_40
  6776   00082C  6E04               	movwf	(clcd_print@data+1)^0,c
  6777   00082E  0E80               	movlw	128
  6778   000830  6E05               	movwf	clcd_print@addr^0,c
  6779   000832  ECAF  F013         	call	_clcd_print	;wreg free
  6780                           
  6781                           ;menu.c: 637:                 clcd_print(" DOES NOT MATCH ",(0xC0 + (0)));
  6782   000836  0EEA               	movlw	low STR_41
  6783   000838  6E03               	movwf	clcd_print@data^0,c
  6784   00083A  0E2E               	movlw	high STR_41
  6785   00083C  6E04               	movwf	(clcd_print@data+1)^0,c
  6786   00083E  0EC0               	movlw	192
  6787   000840  6E05               	movwf	clcd_print@addr^0,c
  6788   000842  ECAF  F013         	call	_clcd_print	;wreg free
  6789   000846                     
  6790                           ;menu.c: 638:                 psw_ind=0;
  6791   000846  0E00               	movlw	0
  6792   000848  6E42               	movwf	change_password@psw_ind^0,c
  6793   00084A                     
  6794                           ;menu.c: 639:                 strcpy(psw_star,"    ");
  6795   00084A  0EA6               	movlw	low _psw_star
  6796   00084C  6E01               	movwf	strcpy@dest^0,c
  6797   00084E  0E00               	movlw	high _psw_star
  6798   000850  6E02               	movwf	(strcpy@dest+1)^0,c
  6799   000852  0EC6               	movlw	low (STR_10+8)
  6800   000854  6E03               	movwf	strcpy@src^0,c
  6801   000856  0E2F               	movlw	high (STR_10+8)
  6802   000858  6E04               	movwf	(strcpy@src+1)^0,c
  6803   00085A  EC32  F015         	call	_strcpy	;wreg free
  6804   00085E                     
  6805                           ;menu.c: 640:                 strcpy(chng_psw_star,"    ");
  6806   00085E  0EA0               	movlw	low change_password@chng_psw_star
  6807   000860  6E01               	movwf	strcpy@dest^0,c
  6808   000862  0E00               	movlw	high change_password@chng_psw_star
  6809   000864  6E02               	movwf	(strcpy@dest+1)^0,c
  6810   000866  0EC6               	movlw	low (STR_10+8)
  6811   000868  6E03               	movwf	strcpy@src^0,c
  6812   00086A  0E2F               	movlw	high (STR_10+8)
  6813   00086C  6E04               	movwf	(strcpy@src+1)^0,c
  6814   00086E  EC32  F015         	call	_strcpy	;wreg free
  6815   000872                     
  6816                           ;menu.c: 641:                 strcpy(chng_psw_temp_star,"    ");
  6817   000872  0E9A               	movlw	low change_password@chng_psw_temp_star
  6818   000874  6E01               	movwf	strcpy@dest^0,c
  6819   000876  0E00               	movlw	high change_password@chng_psw_temp_star
  6820   000878  6E02               	movwf	(strcpy@dest+1)^0,c
  6821   00087A  0EC6               	movlw	low (STR_10+8)
  6822   00087C  6E03               	movwf	strcpy@src^0,c
  6823   00087E  0E2F               	movlw	high (STR_10+8)
  6824   000880  6E04               	movwf	(strcpy@src+1)^0,c
  6825   000882  EC32  F015         	call	_strcpy	;wreg free
  6826   000886                     
  6827                           ;menu.c: 642:                 flag_5_sec = 0;
  6828   000886  0E00               	movlw	0
  6829   000888  6E50               	movwf	_flag_5_sec^0,c
  6830   00088A                     
  6831                           ;menu.c: 643:                 TMR0 = 6;
  6832   00088A  0E00               	movlw	0
  6833   00088C  6ED7               	movwf	215,c	;volatile
  6834   00088E  0E06               	movlw	6
  6835   000890  6ED6               	movwf	214,c	;volatile
  6836   000892                     
  6837                           ;menu.c: 644:                 TMR0IF = 0;
  6838   000892  94F2               	bcf	4082,2,c	;volatile
  6839   000894                     
  6840                           ;menu.c: 645:                 count=0;
  6841   000894  0E00               	movlw	0
  6842   000896  0100               	movlb	0	; () banked
  6843   000898  6FB4               	movwf	_count& (0+255),b
  6844   00089A  0E00               	movlw	0
  6845   00089C  6FB5               	movwf	(_count+1)& (0+255),b
  6846   00089E  0E00               	movlw	0
  6847   0008A0  6FB6               	movwf	(_count+2)& (0+255),b
  6848   0008A2  0E00               	movlw	0
  6849   0008A4  6FB7               	movwf	(_count+3)& (0+255),b
  6850   0008A6                     
  6851                           ; BSR set to: 0
  6852                           ;menu.c: 646:                 TMR0IE = 1;
  6853   0008A6  8AF2               	bsf	4082,5,c	;volatile
  6854   0008A8                     l3704:
  6855   0008A8  5050               	movf	_flag_5_sec^0,w,c
  6856   0008AA  B4D8               	btfsc	status,2,c
  6857   0008AC  EF5A  F004         	goto	u2901
  6858   0008B0  EF5C  F004         	goto	u2900
  6859   0008B4                     u2901:
  6860   0008B4  EF54  F004         	goto	l3704
  6861   0008B8                     u2900:
  6862   0008B8                     
  6863                           ;menu.c: 648:                 TMR0IE = 0;
  6864   0008B8  9AF2               	bcf	4082,5,c	;volatile
  6865   0008BA                     
  6866                           ;menu.c: 649:                 flag_5_sec = 0;
  6867   0008BA  0E00               	movlw	0
  6868   0008BC  6E50               	movwf	_flag_5_sec^0,c
  6869                           
  6870                           ;menu.c: 650:                 flag_1_sec = 0;
  6871   0008BE  0E00               	movlw	0
  6872   0008C0  6E58               	movwf	_flag_1_sec^0,c
  6873                           
  6874                           ;menu.c: 651:                 TMR0 = 6;
  6875   0008C2  0E00               	movlw	0
  6876   0008C4  6ED7               	movwf	215,c	;volatile
  6877   0008C6  0E06               	movlw	6
  6878   0008C8  6ED6               	movwf	214,c	;volatile
  6879   0008CA                     
  6880                           ;menu.c: 652:                 TMR0IF = 0;
  6881   0008CA  94F2               	bcf	4082,2,c	;volatile
  6882                           
  6883                           ;menu.c: 653:                 min_count = 0;
  6884   0008CC  0E00               	movlw	0
  6885   0008CE  0100               	movlb	0	; () banked
  6886   0008D0  6FC3               	movwf	(_min_count+1)& (0+255),b
  6887   0008D2  0E00               	movlw	0
  6888   0008D4  6FC2               	movwf	_min_count& (0+255),b
  6889                           
  6890                           ;menu.c: 654:                 count=0;
  6891   0008D6  0E00               	movlw	0
  6892   0008D8  6FB4               	movwf	_count& (0+255),b
  6893   0008DA  0E00               	movlw	0
  6894   0008DC  6FB5               	movwf	(_count+1)& (0+255),b
  6895   0008DE  0E00               	movlw	0
  6896   0008E0  6FB6               	movwf	(_count+2)& (0+255),b
  6897   0008E2  0E00               	movlw	0
  6898   0008E4  6FB7               	movwf	(_count+3)& (0+255),b
  6899                           
  6900                           ;menu.c: 656:                     log_flag = 0;
  6901   0008E6  0E00               	movlw	0
  6902   0008E8  6E46               	movwf	_log_flag^0,c
  6903                           
  6904                           ;menu.c: 657:                     list_index = 0;
  6905   0008EA  0E00               	movlw	0
  6906   0008EC  6E4B               	movwf	_list_index^0,c
  6907                           
  6908                           ;menu.c: 658:                     menu_pos = 0;
  6909   0008EE  0E00               	movlw	0
  6910   0008F0  6E49               	movwf	_menu_pos^0,c
  6911                           
  6912                           ;menu.c: 659:                     direction_flag =1;
  6913   0008F2  0E01               	movlw	1
  6914   0008F4  6E56               	movwf	_direction_flag^0,c
  6915   0008F6  EF49  F005         	goto	l509
  6916   0008FA                     l3710:
  6917                           
  6918                           ;menu.c: 665:         {;menu.c: 666:             clcd_print("  RE-ENTER PSW  ",(0x80 + (
      +                          0)));
  6919   0008FA  0EB7               	movlw	low STR_45
  6920   0008FC  6E03               	movwf	clcd_print@data^0,c
  6921   0008FE  0E2E               	movlw	high STR_45
  6922   000900  6E04               	movwf	(clcd_print@data+1)^0,c
  6923   000902  0E80               	movlw	128
  6924   000904  6E05               	movwf	clcd_print@addr^0,c
  6925   000906  ECAF  F013         	call	_clcd_print	;wreg free
  6926                           
  6927                           ;menu.c: 667:             clcd_print("            ",(0xC0 + (4)));
  6928   00090A  0EBE               	movlw	low STR_10
  6929   00090C  6E03               	movwf	clcd_print@data^0,c
  6930   00090E  0E2F               	movlw	high STR_10
  6931   000910  6E04               	movwf	(clcd_print@data+1)^0,c
  6932   000912  0EC4               	movlw	196
  6933   000914  6E05               	movwf	clcd_print@addr^0,c
  6934   000916  ECAF  F013         	call	_clcd_print	;wreg free
  6935   00091A                     
  6936                           ;menu.c: 669:            if(key == 5)
  6937   00091A  0E05               	movlw	5
  6938   00091C  180C               	xorwf	change_password@key^0,w,c
  6939   00091E  A4D8               	btfss	status,2,c
  6940   000920  EF94  F004         	goto	u2911
  6941   000924  EF96  F004         	goto	u2910
  6942   000928                     u2911:
  6943   000928  EFB7  F004         	goto	l3718
  6944   00092C                     u2910:
  6945   00092C                     
  6946                           ;menu.c: 670:             {;menu.c: 671:                 chng_psw_temp[psw_ind-4] ='0';
  6947   00092C  0EC0               	movlw	low (change_password@chng_psw_temp+65532)
  6948   00092E  2442               	addwf	change_password@psw_ind^0,w,c
  6949   000930  6ED9               	movwf	fsr2l,c
  6950   000932  6ADA               	clrf	fsr2h,c
  6951   000934  0E00               	movlw	high (change_password@chng_psw_temp+65532)
  6952   000936  22DA               	addwfc	fsr2h,f,c
  6953   000938  0E30               	movlw	48
  6954   00093A  6EDF               	movwf	indf2,c
  6955                           
  6956                           ;menu.c: 672:                 chng_psw_temp[psw_ind-4+1] ='\0';
  6957   00093C  0EC1               	movlw	low (change_password@chng_psw_temp+65533)
  6958   00093E  2442               	addwf	change_password@psw_ind^0,w,c
  6959   000940  6ED9               	movwf	fsr2l,c
  6960   000942  6ADA               	clrf	fsr2h,c
  6961   000944  0E00               	movlw	high (change_password@chng_psw_temp+65533)
  6962   000946  22DA               	addwfc	fsr2h,f,c
  6963   000948  6ADF               	clrf	indf2,c
  6964                           
  6965                           ;menu.c: 673:                 chng_psw_temp_star[psw_ind-4] = '*';
  6966   00094A  0E96               	movlw	low (change_password@chng_psw_temp_star+65532)
  6967   00094C  2442               	addwf	change_password@psw_ind^0,w,c
  6968   00094E  6ED9               	movwf	fsr2l,c
  6969   000950  6ADA               	clrf	fsr2h,c
  6970   000952  0E00               	movlw	high (change_password@chng_psw_temp_star+65532)
  6971   000954  22DA               	addwfc	fsr2h,f,c
  6972   000956  0E2A               	movlw	42
  6973   000958  6EDF               	movwf	indf2,c
  6974                           
  6975                           ;menu.c: 674:                 chng_psw_temp_star[psw_ind-4+1] = '\0';
  6976   00095A  0E97               	movlw	low (change_password@chng_psw_temp_star+65533)
  6977   00095C  2442               	addwf	change_password@psw_ind^0,w,c
  6978   00095E  6ED9               	movwf	fsr2l,c
  6979   000960  6ADA               	clrf	fsr2h,c
  6980   000962  0E00               	movlw	high (change_password@chng_psw_temp_star+65533)
  6981   000964  22DA               	addwfc	fsr2h,f,c
  6982   000966  6ADF               	clrf	indf2,c
  6983   000968                     l3716:
  6984                           
  6985                           ;menu.c: 675:                 psw_ind++;
  6986   000968  2A42               	incf	change_password@psw_ind^0,f,c
  6987                           
  6988                           ;menu.c: 677:             }
  6989   00096A  EFE0  F004         	goto	l3724
  6990   00096E                     l3718:
  6991   00096E  0E06               	movlw	6
  6992   000970  180C               	xorwf	change_password@key^0,w,c
  6993   000972  A4D8               	btfss	status,2,c
  6994   000974  EFBE  F004         	goto	u2921
  6995   000978  EFC0  F004         	goto	u2920
  6996   00097C                     u2921:
  6997   00097C  EFE0  F004         	goto	l3724
  6998   000980                     u2920:
  6999   000980                     
  7000                           ;menu.c: 679:             {;menu.c: 680:                 chng_psw_temp[psw_ind-4] ='1';
  7001   000980  0EC0               	movlw	low (change_password@chng_psw_temp+65532)
  7002   000982  2442               	addwf	change_password@psw_ind^0,w,c
  7003   000984  6ED9               	movwf	fsr2l,c
  7004   000986  6ADA               	clrf	fsr2h,c
  7005   000988  0E00               	movlw	high (change_password@chng_psw_temp+65532)
  7006   00098A  22DA               	addwfc	fsr2h,f,c
  7007   00098C  0E31               	movlw	49
  7008   00098E  6EDF               	movwf	indf2,c
  7009                           
  7010                           ;menu.c: 681:                 chng_psw_temp[psw_ind-4+1] ='\0';
  7011   000990  0EC1               	movlw	low (change_password@chng_psw_temp+65533)
  7012   000992  2442               	addwf	change_password@psw_ind^0,w,c
  7013   000994  6ED9               	movwf	fsr2l,c
  7014   000996  6ADA               	clrf	fsr2h,c
  7015   000998  0E00               	movlw	high (change_password@chng_psw_temp+65533)
  7016   00099A  22DA               	addwfc	fsr2h,f,c
  7017   00099C  6ADF               	clrf	indf2,c
  7018                           
  7019                           ;menu.c: 682:                 chng_psw_temp_star[psw_ind-4] = '*';
  7020   00099E  0E96               	movlw	low (change_password@chng_psw_temp_star+65532)
  7021   0009A0  2442               	addwf	change_password@psw_ind^0,w,c
  7022   0009A2  6ED9               	movwf	fsr2l,c
  7023   0009A4  6ADA               	clrf	fsr2h,c
  7024   0009A6  0E00               	movlw	high (change_password@chng_psw_temp_star+65532)
  7025   0009A8  22DA               	addwfc	fsr2h,f,c
  7026   0009AA  0E2A               	movlw	42
  7027   0009AC  6EDF               	movwf	indf2,c
  7028                           
  7029                           ;menu.c: 683:                 chng_psw_temp_star[psw_ind-4+1] = '\0';
  7030   0009AE  0E97               	movlw	low (change_password@chng_psw_temp_star+65533)
  7031   0009B0  2442               	addwf	change_password@psw_ind^0,w,c
  7032   0009B2  6ED9               	movwf	fsr2l,c
  7033   0009B4  6ADA               	clrf	fsr2h,c
  7034   0009B6  0E00               	movlw	high (change_password@chng_psw_temp_star+65533)
  7035   0009B8  22DA               	addwfc	fsr2h,f,c
  7036   0009BA  6ADF               	clrf	indf2,c
  7037   0009BC  EFB4  F004         	goto	l3716
  7038   0009C0                     l3724:
  7039                           
  7040                           ;menu.c: 687:             clcd_print(chng_psw_temp_star,(0xC0 + (0)));
  7041   0009C0  0E9A               	movlw	low change_password@chng_psw_temp_star
  7042   0009C2  6E03               	movwf	clcd_print@data^0,c
  7043   0009C4  0E00               	movlw	high change_password@chng_psw_temp_star
  7044   0009C6  6E04               	movwf	(clcd_print@data+1)^0,c
  7045   0009C8  0EC0               	movlw	192
  7046   0009CA  6E05               	movwf	clcd_print@addr^0,c
  7047   0009CC  ECAF  F013         	call	_clcd_print	;wreg free
  7048   0009D0  EF49  F005         	goto	l509
  7049   0009D4                     l501:
  7050                           
  7051                           ;menu.c: 690:     }
  7052   0009D4  EF49  F005         	goto	l509
  7053   0009D8                     l3726:
  7054                           
  7055                           ;menu.c: 693:     {;menu.c: 694:         clcd_print(" ENTER PASSWORD ",(0x80 + (0)));
  7056   0009D8  0E2E               	movlw	low STR_9
  7057   0009DA  6E03               	movwf	clcd_print@data^0,c
  7058   0009DC  0E2F               	movlw	high STR_9
  7059   0009DE  6E04               	movwf	(clcd_print@data+1)^0,c
  7060   0009E0  0E80               	movlw	128
  7061   0009E2  6E05               	movwf	clcd_print@addr^0,c
  7062   0009E4  ECAF  F013         	call	_clcd_print	;wreg free
  7063                           
  7064                           ;menu.c: 695:         clcd_print("            ",(0xC0 + (4)));
  7065   0009E8  0EBE               	movlw	low STR_10
  7066   0009EA  6E03               	movwf	clcd_print@data^0,c
  7067   0009EC  0E2F               	movlw	high STR_10
  7068   0009EE  6E04               	movwf	(clcd_print@data+1)^0,c
  7069   0009F0  0EC4               	movlw	196
  7070   0009F2  6E05               	movwf	clcd_print@addr^0,c
  7071   0009F4  ECAF  F013         	call	_clcd_print	;wreg free
  7072   0009F8                     
  7073                           ;menu.c: 697:         if(key == 5)
  7074   0009F8  0E05               	movlw	5
  7075   0009FA  180C               	xorwf	change_password@key^0,w,c
  7076   0009FC  A4D8               	btfss	status,2,c
  7077   0009FE  EF03  F005         	goto	u2931
  7078   000A02  EF05  F005         	goto	u2930
  7079   000A06                     u2931:
  7080   000A06  EF1F  F005         	goto	l3734
  7081   000A0A                     u2930:
  7082   000A0A                     
  7083                           ;menu.c: 698:         {;menu.c: 699:             chng_psw[psw_ind] ='0';
  7084   000A0A  0EC9               	movlw	low change_password@chng_psw
  7085   000A0C  2442               	addwf	change_password@psw_ind^0,w,c
  7086   000A0E  6ED9               	movwf	fsr2l,c
  7087   000A10  6ADA               	clrf	fsr2h,c
  7088   000A12  0E00               	movlw	high change_password@chng_psw
  7089   000A14  22DA               	addwfc	fsr2h,f,c
  7090   000A16  0E30               	movlw	48
  7091   000A18  6EDF               	movwf	indf2,c
  7092                           
  7093                           ;menu.c: 700:             chng_psw_star[psw_ind] = '*';
  7094   000A1A  0EA0               	movlw	low change_password@chng_psw_star
  7095   000A1C  2442               	addwf	change_password@psw_ind^0,w,c
  7096   000A1E  6ED9               	movwf	fsr2l,c
  7097   000A20  6ADA               	clrf	fsr2h,c
  7098   000A22  0E00               	movlw	high change_password@chng_psw_star
  7099   000A24  22DA               	addwfc	fsr2h,f,c
  7100   000A26  0E2A               	movlw	42
  7101   000A28  6EDF               	movwf	indf2,c
  7102                           
  7103                           ;menu.c: 701:             chng_psw_star[psw_ind+1] = '\0';
  7104   000A2A  0EA1               	movlw	low (change_password@chng_psw_star+1)
  7105   000A2C  2442               	addwf	change_password@psw_ind^0,w,c
  7106   000A2E  6ED9               	movwf	fsr2l,c
  7107   000A30  6ADA               	clrf	fsr2h,c
  7108   000A32  0E00               	movlw	high (change_password@chng_psw_star+1)
  7109   000A34  22DA               	addwfc	fsr2h,f,c
  7110   000A36  6ADF               	clrf	indf2,c
  7111   000A38                     l3732:
  7112                           
  7113                           ;menu.c: 702:             psw_ind++;
  7114   000A38  2A42               	incf	change_password@psw_ind^0,f,c
  7115                           
  7116                           ;menu.c: 704:         }
  7117   000A3A  EF41  F005         	goto	l3740
  7118   000A3E                     l3734:
  7119   000A3E  0E06               	movlw	6
  7120   000A40  180C               	xorwf	change_password@key^0,w,c
  7121   000A42  A4D8               	btfss	status,2,c
  7122   000A44  EF26  F005         	goto	u2941
  7123   000A48  EF28  F005         	goto	u2940
  7124   000A4C                     u2941:
  7125   000A4C  EF41  F005         	goto	l3740
  7126   000A50                     u2940:
  7127   000A50                     
  7128                           ;menu.c: 706:         {;menu.c: 707:             chng_psw[psw_ind] ='1';
  7129   000A50  0EC9               	movlw	low change_password@chng_psw
  7130   000A52  2442               	addwf	change_password@psw_ind^0,w,c
  7131   000A54  6ED9               	movwf	fsr2l,c
  7132   000A56  6ADA               	clrf	fsr2h,c
  7133   000A58  0E00               	movlw	high change_password@chng_psw
  7134   000A5A  22DA               	addwfc	fsr2h,f,c
  7135   000A5C  0E31               	movlw	49
  7136   000A5E  6EDF               	movwf	indf2,c
  7137                           
  7138                           ;menu.c: 708:             chng_psw_star[psw_ind] = '*';
  7139   000A60  0EA0               	movlw	low change_password@chng_psw_star
  7140   000A62  2442               	addwf	change_password@psw_ind^0,w,c
  7141   000A64  6ED9               	movwf	fsr2l,c
  7142   000A66  6ADA               	clrf	fsr2h,c
  7143   000A68  0E00               	movlw	high change_password@chng_psw_star
  7144   000A6A  22DA               	addwfc	fsr2h,f,c
  7145   000A6C  0E2A               	movlw	42
  7146   000A6E  6EDF               	movwf	indf2,c
  7147                           
  7148                           ;menu.c: 709:             chng_psw_star[psw_ind+1] = '\0';
  7149   000A70  0EA1               	movlw	low (change_password@chng_psw_star+1)
  7150   000A72  2442               	addwf	change_password@psw_ind^0,w,c
  7151   000A74  6ED9               	movwf	fsr2l,c
  7152   000A76  6ADA               	clrf	fsr2h,c
  7153   000A78  0E00               	movlw	high (change_password@chng_psw_star+1)
  7154   000A7A  22DA               	addwfc	fsr2h,f,c
  7155   000A7C  6ADF               	clrf	indf2,c
  7156   000A7E  EF1C  F005         	goto	l3732
  7157   000A82                     l3740:
  7158                           
  7159                           ;menu.c: 713:         clcd_print(chng_psw_star,(0xC0 + (0)));
  7160   000A82  0EA0               	movlw	low change_password@chng_psw_star
  7161   000A84  6E03               	movwf	clcd_print@data^0,c
  7162   000A86  0E00               	movlw	high change_password@chng_psw_star
  7163   000A88  6E04               	movwf	(clcd_print@data+1)^0,c
  7164   000A8A  0EC0               	movlw	192
  7165   000A8C  6E05               	movwf	clcd_print@addr^0,c
  7166   000A8E  ECAF  F013         	call	_clcd_print	;wreg free
  7167   000A92                     l509:
  7168   000A92  0012               	return		;funcret
  7169   000A94                     __end_of_change_password:
  7170                           	callstack 0
  7171                           
  7172 ;; *************** function _write_external_eeprom *****************
  7173 ;; Defined at:
  7174 ;;		line 49 in file "ext_eeprom.c"
  7175 ;; Parameters:    Size  Location     Type
  7176 ;;  address         1    wreg     unsigned char 
  7177 ;;  data            1    1[COMRAM] unsigned char 
  7178 ;; Auto vars:     Size  Location     Type
  7179 ;;  address         1    4[COMRAM] unsigned char 
  7180 ;;  i               2    2[COMRAM] unsigned int 
  7181 ;; Return value:  Size  Location     Type
  7182 ;;                  1    wreg      void 
  7183 ;; Registers used:
  7184 ;;		wreg, status,2, status,0, cstack
  7185 ;; Tracked objects:
  7186 ;;		On entry : 0/0
  7187 ;;		On exit  : 0/0
  7188 ;;		Unchanged: 0/0
  7189 ;; Data sizes:     COMRAM   BANK0   BANK1   BANK2   BANK3   BANK4   BANK5
  7190 ;;      Params:         1       0       0       0       0       0       0
  7191 ;;      Locals:         3       0       0       0       0       0       0
  7192 ;;      Temps:          0       0       0       0       0       0       0
  7193 ;;      Totals:         4       0       0       0       0       0       0
  7194 ;;Total ram usage:        4 bytes
  7195 ;; Hardware stack levels used: 1
  7196 ;; Hardware stack levels required when called: 3
  7197 ;; This function calls:
  7198 ;;		_i2c_start
  7199 ;;		_i2c_stop
  7200 ;;		_i2c_write
  7201 ;; This function is called by:
  7202 ;;		_main
  7203 ;;		_clear_log
  7204 ;;		_change_password
  7205 ;;		_store_eeprom
  7206 ;; This function uses a non-reentrant model
  7207 ;;
  7208                           
  7209                           	psect	text26
  7210   002A24                     __ptext26:
  7211                           	callstack 0
  7212   002A24                     _write_external_eeprom:
  7213                           	callstack 27
  7214                           
  7215                           ;incstack = 0
  7216                           ;write_external_eeprom@address stored from wreg
  7217   002A24  6E05               	movwf	write_external_eeprom@address^0,c
  7218   002A26                     
  7219                           ;ext_eeprom.c: 49: void write_external_eeprom(unsigned char address, unsigned char data)
      +                          ;ext_eeprom.c: 50: {;ext_eeprom.c: 51:  i2c_start();
  7220   002A26  EC60  F016         	call	_i2c_start	;wreg free
  7221   002A2A                     
  7222                           ;ext_eeprom.c: 52:  i2c_write(0xA0);
  7223   002A2A  0EA0               	movlw	160
  7224   002A2C  EC50  F016         	call	_i2c_write
  7225   002A30                     
  7226                           ;ext_eeprom.c: 53:  i2c_write(address);
  7227   002A30  5005               	movf	write_external_eeprom@address^0,w,c
  7228   002A32  EC50  F016         	call	_i2c_write
  7229   002A36                     
  7230                           ;ext_eeprom.c: 54:  i2c_write(data);
  7231   002A36  5002               	movf	write_external_eeprom@data^0,w,c
  7232   002A38  EC50  F016         	call	_i2c_write
  7233   002A3C                     
  7234                           ;ext_eeprom.c: 55:  i2c_stop();
  7235   002A3C  EC5C  F016         	call	_i2c_stop	;wreg free
  7236   002A40                     
  7237                           ;ext_eeprom.c: 56:  for(unsigned int i = 3000;i--;);
  7238   002A40  0E0B               	movlw	11
  7239   002A42  6E04               	movwf	(write_external_eeprom@i+1)^0,c
  7240   002A44  0EB8               	movlw	184
  7241   002A46  6E03               	movwf	write_external_eeprom@i^0,c
  7242   002A48                     l3254:
  7243   002A48  0603               	decf	write_external_eeprom@i^0,f,c
  7244   002A4A  A0D8               	btfss	status,0,c
  7245   002A4C  0604               	decf	(write_external_eeprom@i+1)^0,f,c
  7246   002A4E  2803               	incf	write_external_eeprom@i^0,w,c
  7247   002A50  E106               	bnz	u2421
  7248   002A52  2804               	incf	(write_external_eeprom@i+1)^0,w,c
  7249   002A54  A4D8               	btfss	status,2,c
  7250   002A56  EF2F  F015         	goto	u2421
  7251   002A5A  EF31  F015         	goto	u2420
  7252   002A5E                     u2421:
  7253   002A5E  EF24  F015         	goto	l3254
  7254   002A62                     u2420:
  7255   002A62  0012               	return		;funcret
  7256   002A64                     __end_of_write_external_eeprom:
  7257                           	callstack 0
  7258                           
  7259 ;; *************** function _strcpy *****************
  7260 ;; Defined at:
  7261 ;;		line 3 in file "C:\Program Files\Microchip\xc8\v2.41\pic\sources\c99\common\strcpy.c"
  7262 ;; Parameters:    Size  Location     Type
  7263 ;;  dest            2    0[COMRAM] PTR unsigned char 
  7264 ;;		 -> change_password@chng_psw_temp_star(6), change_password@chng_psw_star(6), psw_star(6), 
  7265 ;;  src             2    2[COMRAM] PTR const unsigned char 
  7266 ;;		 -> STR_44(5), STR_43(5), STR_42(5), STR_39(5), 
  7267 ;;		 -> STR_36(5), STR_35(5), STR_34(5), STR_31(5), 
  7268 ;;		 -> STR_8(5), STR_2(5), STR_1(5), 
  7269 ;; Auto vars:     Size  Location     Type
  7270 ;;  d               2    6[COMRAM] PTR unsigned char 
  7271 ;;		 -> change_password@chng_psw_temp_star(6), change_password@chng_psw_star(6), psw_star(6), 
  7272 ;;  s               2    4[COMRAM] PTR const unsigned char 
  7273 ;;		 -> STR_44(5), STR_43(5), STR_42(5), STR_39(5), 
  7274 ;;		 -> STR_36(5), STR_35(5), STR_34(5), STR_31(5), 
  7275 ;;		 -> STR_8(5), STR_2(5), STR_1(5), 
  7276 ;; Return value:  Size  Location     Type
  7277 ;;                  2    0[COMRAM] PTR unsigned char 
  7278 ;; Registers used:
  7279 ;;		wreg, fsr2l, fsr2h, status,2, status,0, tblptrl, tblptrh, tblptru
  7280 ;; Tracked objects:
  7281 ;;		On entry : 0/0
  7282 ;;		On exit  : 0/0
  7283 ;;		Unchanged: 0/0
  7284 ;; Data sizes:     COMRAM   BANK0   BANK1   BANK2   BANK3   BANK4   BANK5
  7285 ;;      Params:         4       0       0       0       0       0       0
  7286 ;;      Locals:         4       0       0       0       0       0       0
  7287 ;;      Temps:          0       0       0       0       0       0       0
  7288 ;;      Totals:         8       0       0       0       0       0       0
  7289 ;;Total ram usage:        8 bytes
  7290 ;; Hardware stack levels used: 1
  7291 ;; Hardware stack levels required when called: 1
  7292 ;; This function calls:
  7293 ;;		Nothing
  7294 ;; This function is called by:
  7295 ;;		_login_BB
  7296 ;;		_set_time
  7297 ;;		_change_password
  7298 ;; This function uses a non-reentrant model
  7299 ;;
  7300                           
  7301                           	psect	text27
  7302   002A64                     __ptext27:
  7303                           	callstack 0
  7304   002A64                     _strcpy:
  7305                           	callstack 27
  7306   002A64  C003  F005         	movff	strcpy@src,strcpy@s
  7307   002A68  C004  F006         	movff	strcpy@src+1,strcpy@s+1
  7308   002A6C  C001  F007         	movff	strcpy@dest,strcpy@d
  7309   002A70  C002  F008         	movff	strcpy@dest+1,strcpy@d+1
  7310   002A74                     l3308:
  7311   002A74  C005  FFF6         	movff	strcpy@s,tblptrl
  7312   002A78  C006  FFF7         	movff	strcpy@s+1,tblptrh
  7313   002A7C  4A05               	infsnz	strcpy@s^0,f,c
  7314   002A7E  2A06               	incf	(strcpy@s+1)^0,f,c
  7315   002A80                     	if	0	;tblptru may be non-zero
  7316   002A80                     	endif
  7317   002A80                     	if	0	;tblptru may be non-zero
  7318   002A80                     	endif
  7319   002A80  C007  FFD9         	movff	strcpy@d,fsr2l
  7320   002A84  C008  FFDA         	movff	strcpy@d+1,fsr2h
  7321   002A88  4A07               	infsnz	strcpy@d^0,f,c
  7322   002A8A  2A08               	incf	(strcpy@d+1)^0,f,c
  7323   002A8C  0008               	tblrd		*
  7324   002A8E  CFF5 FFDF          	movff	tablat,indf2
  7325   002A92  50DF               	movf	indf2,w,c
  7326   002A94  A4D8               	btfss	status,2,c
  7327   002A96  EF4F  F015         	goto	u2531
  7328   002A9A  EF51  F015         	goto	u2530
  7329   002A9E                     u2531:
  7330   002A9E  EF3A  F015         	goto	l3308
  7331   002AA2                     u2530:
  7332   002AA2  0012               	return		;funcret
  7333   002AA4                     __end_of_strcpy:
  7334                           	callstack 0
  7335                           
  7336 ;; *************** function _strcmp *****************
  7337 ;; Defined at:
  7338 ;;		line 3 in file "C:\Program Files\Microchip\xc8\v2.41\pic\sources\c99\common\strcmp.c"
  7339 ;; Parameters:    Size  Location     Type
  7340 ;;  l               2    0[COMRAM] PTR const unsigned char 
  7341 ;;		 -> change_password@chng_psw(5), psw_arr(5), 
  7342 ;;  r               2    2[COMRAM] PTR const unsigned char 
  7343 ;;		 -> change_password@chng_psw_temp(5), psw_temp(5), 
  7344 ;; Auto vars:     Size  Location     Type
  7345 ;;		None
  7346 ;; Return value:  Size  Location     Type
  7347 ;;                  2    0[COMRAM] int 
  7348 ;; Registers used:
  7349 ;;		wreg, fsr1l, fsr1h, fsr2l, fsr2h, status,2, status,0
  7350 ;; Tracked objects:
  7351 ;;		On entry : 0/0
  7352 ;;		On exit  : 0/0
  7353 ;;		Unchanged: 0/0
  7354 ;; Data sizes:     COMRAM   BANK0   BANK1   BANK2   BANK3   BANK4   BANK5
  7355 ;;      Params:         4       0       0       0       0       0       0
  7356 ;;      Locals:         0       0       0       0       0       0       0
  7357 ;;      Temps:          2       0       0       0       0       0       0
  7358 ;;      Totals:         6       0       0       0       0       0       0
  7359 ;;Total ram usage:        6 bytes
  7360 ;; Hardware stack levels used: 1
  7361 ;; Hardware stack levels required when called: 1
  7362 ;; This function calls:
  7363 ;;		Nothing
  7364 ;; This function is called by:
  7365 ;;		_login_BB
  7366 ;;		_change_password
  7367 ;; This function uses a non-reentrant model
  7368 ;;
  7369                           
  7370                           	psect	text28
  7371   0026F2                     __ptext28:
  7372                           	callstack 0
  7373   0026F2                     _strcmp:
  7374                           	callstack 27
  7375   0026F2  EF7F  F013         	goto	l3298
  7376   0026F6                     l3296:
  7377   0026F6  4A01               	infsnz	strcmp@l^0,f,c
  7378   0026F8  2A02               	incf	(strcmp@l+1)^0,f,c
  7379   0026FA  4A03               	infsnz	strcmp@r^0,f,c
  7380   0026FC  2A04               	incf	(strcmp@r+1)^0,f,c
  7381   0026FE                     l3298:
  7382   0026FE  C003  FFD9         	movff	strcmp@r,fsr2l
  7383   002702  C004  FFDA         	movff	strcmp@r+1,fsr2h
  7384   002706  C001  FFE1         	movff	strcmp@l,fsr1l
  7385   00270A  C002  FFE2         	movff	strcmp@l+1,fsr1h
  7386   00270E  50DE               	movf	postinc2,w,c
  7387   002710  18E6               	xorwf	postinc1,w,c
  7388   002712  A4D8               	btfss	status,2,c
  7389   002714  EF8E  F013         	goto	u2511
  7390   002718  EF90  F013         	goto	u2510
  7391   00271C                     u2511:
  7392   00271C  EF9C  F013         	goto	l3302
  7393   002720                     u2510:
  7394   002720  C001  FFD9         	movff	strcmp@l,fsr2l
  7395   002724  C002  FFDA         	movff	strcmp@l+1,fsr2h
  7396   002728  50DF               	movf	indf2,w,c
  7397   00272A  A4D8               	btfss	status,2,c
  7398   00272C  EF9A  F013         	goto	u2521
  7399   002730  EF9C  F013         	goto	u2520
  7400   002734                     u2521:
  7401   002734  EF7B  F013         	goto	l3296
  7402   002738                     u2520:
  7403   002738                     l3302:
  7404   002738  C001  FFD9         	movff	strcmp@l,fsr2l
  7405   00273C  C002  FFDA         	movff	strcmp@l+1,fsr2h
  7406   002740  50DF               	movf	indf2,w,c
  7407   002742  6E05               	movwf	??_strcmp^0,c
  7408   002744  C003  FFD9         	movff	strcmp@r,fsr2l
  7409   002748  C004  FFDA         	movff	strcmp@r+1,fsr2h
  7410   00274C  50DF               	movf	indf2,w,c
  7411   00274E  6E06               	movwf	(??_strcmp+1)^0,c
  7412   002750  5006               	movf	(??_strcmp+1)^0,w,c
  7413   002752  5C05               	subwf	??_strcmp^0,w,c
  7414   002754  6E01               	movwf	?_strcmp^0,c
  7415   002756  6A02               	clrf	(?_strcmp+1)^0,c
  7416   002758  A0D8               	btfss	status,0,c
  7417   00275A  0602               	decf	(?_strcmp+1)^0,f,c
  7418   00275C  0012               	return		;funcret
  7419   00275E                     __end_of_strcmp:
  7420                           	callstack 0
  7421                           
  7422 ;; *************** function _read_switches *****************
  7423 ;; Defined at:
  7424 ;;		line 88 in file "matrix_keypad.c"
  7425 ;; Parameters:    Size  Location     Type
  7426 ;;  detection_ty    1    wreg     unsigned char 
  7427 ;; Auto vars:     Size  Location     Type
  7428 ;;  detection_ty    1    0[COMRAM] unsigned char 
  7429 ;; Return value:  Size  Location     Type
  7430 ;;                  1    wreg      unsigned char 
  7431 ;; Registers used:
  7432 ;;		wreg, status,2, status,0, cstack
  7433 ;; Tracked objects:
  7434 ;;		On entry : 0/0
  7435 ;;		On exit  : 0/0
  7436 ;;		Unchanged: 0/0
  7437 ;; Data sizes:     COMRAM   BANK0   BANK1   BANK2   BANK3   BANK4   BANK5
  7438 ;;      Params:         0       0       0       0       0       0       0
  7439 ;;      Locals:         1       0       0       0       0       0       0
  7440 ;;      Temps:          0       0       0       0       0       0       0
  7441 ;;      Totals:         1       0       0       0       0       0       0
  7442 ;;Total ram usage:        1 bytes
  7443 ;; Hardware stack levels used: 1
  7444 ;; Hardware stack levels required when called: 2
  7445 ;; This function calls:
  7446 ;;		_scan_key
  7447 ;; This function is called by:
  7448 ;;		_main
  7449 ;;		_display_menu
  7450 ;;		_set_time
  7451 ;;		_change_password
  7452 ;; This function uses a non-reentrant model
  7453 ;;
  7454                           
  7455                           	psect	text29
  7456   00267C                     __ptext29:
  7457                           	callstack 0
  7458   00267C                     _read_switches:
  7459                           	callstack 28
  7460                           
  7461                           ;incstack = 0
  7462                           ;read_switches@detection_type stored from wreg
  7463   00267C  6E01               	movwf	read_switches@detection_type^0,c
  7464   00267E                     
  7465                           ;matrix_keypad.c: 88: unsigned char read_switches(unsigned char detection_type);matrix_k
      +                          eypad.c: 89: {;matrix_keypad.c: 90:  static unsigned char once = 1, key;;matrix_keypad.c
      +                          : 92:  if (detection_type == 1)
  7466   00267E  0401               	decf	read_switches@detection_type^0,w,c
  7467   002680  A4D8               	btfss	status,2,c
  7468   002682  EF45  F013         	goto	u2431
  7469   002686  EF47  F013         	goto	u2430
  7470   00268A                     u2431:
  7471   00268A  EF6B  F013         	goto	l3274
  7472   00268E                     u2430:
  7473   00268E                     
  7474                           ;matrix_keypad.c: 93:  {;matrix_keypad.c: 94:   key = scan_key();
  7475   00268E  ECA1  F00F         	call	_scan_key	;wreg free
  7476   002692  6E51               	movwf	read_switches@key^0,c
  7477   002694                     
  7478                           ;matrix_keypad.c: 95:   if(key != 0xFF && once )
  7479   002694  2851               	incf	read_switches@key^0,w,c
  7480   002696  B4D8               	btfsc	status,2,c
  7481   002698  EF50  F013         	goto	u2441
  7482   00269C  EF52  F013         	goto	u2440
  7483   0026A0                     u2441:
  7484   0026A0  EF5F  F013         	goto	l3270
  7485   0026A4                     u2440:
  7486   0026A4  5059               	movf	read_switches@once^0,w,c
  7487   0026A6  B4D8               	btfsc	status,2,c
  7488   0026A8  EF58  F013         	goto	u2451
  7489   0026AC  EF5A  F013         	goto	u2450
  7490   0026B0                     u2451:
  7491   0026B0  EF5F  F013         	goto	l3270
  7492   0026B4                     u2450:
  7493   0026B4                     
  7494                           ;matrix_keypad.c: 96:   {;matrix_keypad.c: 97:    once = 0;
  7495   0026B4  0E00               	movlw	0
  7496   0026B6  6E59               	movwf	read_switches@once^0,c
  7497                           
  7498                           ;matrix_keypad.c: 98:    return key;
  7499   0026B8  5051               	movf	read_switches@key^0,w,c
  7500   0026BA  EF78  F013         	goto	l116
  7501   0026BE                     l3270:
  7502   0026BE  2851               	incf	read_switches@key^0,w,c
  7503   0026C0  A4D8               	btfss	status,2,c
  7504   0026C2  EF65  F013         	goto	u2461
  7505   0026C6  EF67  F013         	goto	u2460
  7506   0026CA                     u2461:
  7507   0026CA  EF77  F013         	goto	l3280
  7508   0026CE                     u2460:
  7509   0026CE                     
  7510                           ;matrix_keypad.c: 101:   {;matrix_keypad.c: 102:    once = 1;
  7511   0026CE  0E01               	movlw	1
  7512   0026D0  6E59               	movwf	read_switches@once^0,c
  7513   0026D2  EF77  F013         	goto	l3280
  7514   0026D6                     l3274:
  7515   0026D6  5001               	movf	read_switches@detection_type^0,w,c
  7516   0026D8  A4D8               	btfss	status,2,c
  7517   0026DA  EF71  F013         	goto	u2471
  7518   0026DE  EF73  F013         	goto	u2470
  7519   0026E2                     u2471:
  7520   0026E2  EF77  F013         	goto	l3280
  7521   0026E6                     u2470:
  7522   0026E6                     
  7523                           ;matrix_keypad.c: 106:  {;matrix_keypad.c: 107:   return scan_key();
  7524   0026E6  ECA1  F00F         	call	_scan_key	;wreg free
  7525   0026EA  EF78  F013         	goto	l116
  7526   0026EE                     l3280:
  7527                           
  7528                           ;matrix_keypad.c: 110:  return 0xFF;
  7529   0026EE  0EFF               	movlw	255
  7530   0026F0                     l116:
  7531   0026F0  0012               	return		;funcret
  7532   0026F2                     __end_of_read_switches:
  7533                           	callstack 0
  7534                           
  7535 ;; *************** function _scan_key *****************
  7536 ;; Defined at:
  7537 ;;		line 18 in file "matrix_keypad.c"
  7538 ;; Parameters:    Size  Location     Type
  7539 ;;		None
  7540 ;; Auto vars:     Size  Location     Type
  7541 ;;		None
  7542 ;; Return value:  Size  Location     Type
  7543 ;;                  1    wreg      unsigned char 
  7544 ;; Registers used:
  7545 ;;		wreg
  7546 ;; Tracked objects:
  7547 ;;		On entry : 0/0
  7548 ;;		On exit  : 0/0
  7549 ;;		Unchanged: 0/0
  7550 ;; Data sizes:     COMRAM   BANK0   BANK1   BANK2   BANK3   BANK4   BANK5
  7551 ;;      Params:         0       0       0       0       0       0       0
  7552 ;;      Locals:         0       0       0       0       0       0       0
  7553 ;;      Temps:          0       0       0       0       0       0       0
  7554 ;;      Totals:         0       0       0       0       0       0       0
  7555 ;;Total ram usage:        0 bytes
  7556 ;; Hardware stack levels used: 1
  7557 ;; Hardware stack levels required when called: 1
  7558 ;; This function calls:
  7559 ;;		Nothing
  7560 ;; This function is called by:
  7561 ;;		_read_switches
  7562 ;; This function uses a non-reentrant model
  7563 ;;
  7564                           
  7565                           	psect	text30
  7566   001F42                     __ptext30:
  7567                           	callstack 0
  7568   001F42                     _scan_key:
  7569                           	callstack 28
  7570   001F42                     
  7571                           ;matrix_keypad.c: 20:  PORTBbits.RB5 = 0;
  7572   001F42  9A81               	bcf	129,5,c	;volatile
  7573                           
  7574                           ;matrix_keypad.c: 21:  PORTBbits.RB6 = 1;
  7575   001F44  8C81               	bsf	129,6,c	;volatile
  7576                           
  7577                           ;matrix_keypad.c: 22:  PORTBbits.RB7 = 1;
  7578   001F46  8E81               	bsf	129,7,c	;volatile
  7579                           
  7580                           ;matrix_keypad.c: 24:  if (PORTBbits.RB1 == 0)
  7581   001F48  B281               	btfsc	129,1,c	;volatile
  7582   001F4A  EFA9  F00F         	goto	u2151
  7583   001F4E  EFAB  F00F         	goto	u2150
  7584   001F52                     u2151:
  7585   001F52  EFAE  F00F         	goto	l86
  7586   001F56                     u2150:
  7587   001F56                     
  7588                           ;matrix_keypad.c: 25:  {;matrix_keypad.c: 26:   return 1;
  7589   001F56  0E01               	movlw	1
  7590   001F58  EF24  F010         	goto	l87
  7591   001F5C                     l86:
  7592   001F5C  B481               	btfsc	129,2,c	;volatile
  7593   001F5E  EFB3  F00F         	goto	u2161
  7594   001F62  EFB5  F00F         	goto	u2160
  7595   001F66                     u2161:
  7596   001F66  EFB8  F00F         	goto	l89
  7597   001F6A                     u2160:
  7598   001F6A                     
  7599                           ;matrix_keypad.c: 29:  {;matrix_keypad.c: 30:   return 4;
  7600   001F6A  0E04               	movlw	4
  7601   001F6C  EF24  F010         	goto	l87
  7602   001F70                     l89:
  7603   001F70  B681               	btfsc	129,3,c	;volatile
  7604   001F72  EFBD  F00F         	goto	u2171
  7605   001F76  EFBF  F00F         	goto	u2170
  7606   001F7A                     u2171:
  7607   001F7A  EFC2  F00F         	goto	l91
  7608   001F7E                     u2170:
  7609   001F7E                     
  7610                           ;matrix_keypad.c: 33:  {;matrix_keypad.c: 34:   return 7;
  7611   001F7E  0E07               	movlw	7
  7612   001F80  EF24  F010         	goto	l87
  7613   001F84                     l91:
  7614   001F84  B881               	btfsc	129,4,c	;volatile
  7615   001F86  EFC7  F00F         	goto	u2181
  7616   001F8A  EFC9  F00F         	goto	u2180
  7617   001F8E                     u2181:
  7618   001F8E  EFCC  F00F         	goto	l88
  7619   001F92                     u2180:
  7620   001F92                     
  7621                           ;matrix_keypad.c: 37:  {;matrix_keypad.c: 38:   return 10;
  7622   001F92  0E0A               	movlw	10
  7623   001F94  EF24  F010         	goto	l87
  7624   001F98                     l88:
  7625                           
  7626                           ;matrix_keypad.c: 41:  PORTBbits.RB5 = 1;
  7627   001F98  8A81               	bsf	129,5,c	;volatile
  7628                           
  7629                           ;matrix_keypad.c: 42:  PORTBbits.RB6 = 0;
  7630   001F9A  9C81               	bcf	129,6,c	;volatile
  7631                           
  7632                           ;matrix_keypad.c: 43:  PORTBbits.RB7 = 1;
  7633   001F9C  8E81               	bsf	129,7,c	;volatile
  7634                           
  7635                           ;matrix_keypad.c: 45:  if (PORTBbits.RB1 == 0)
  7636   001F9E  B281               	btfsc	129,1,c	;volatile
  7637   001FA0  EFD4  F00F         	goto	u2191
  7638   001FA4  EFD6  F00F         	goto	u2190
  7639   001FA8                     u2191:
  7640   001FA8  EFD9  F00F         	goto	l94
  7641   001FAC                     u2190:
  7642   001FAC                     
  7643                           ;matrix_keypad.c: 46:  {;matrix_keypad.c: 47:   return 2;
  7644   001FAC  0E02               	movlw	2
  7645   001FAE  EF24  F010         	goto	l87
  7646   001FB2                     l94:
  7647   001FB2  B481               	btfsc	129,2,c	;volatile
  7648   001FB4  EFDE  F00F         	goto	u2201
  7649   001FB8  EFE0  F00F         	goto	u2200
  7650   001FBC                     u2201:
  7651   001FBC  EFE3  F00F         	goto	l96
  7652   001FC0                     u2200:
  7653   001FC0                     
  7654                           ;matrix_keypad.c: 50:  {;matrix_keypad.c: 51:   return 5;
  7655   001FC0  0E05               	movlw	5
  7656   001FC2  EF24  F010         	goto	l87
  7657   001FC6                     l96:
  7658   001FC6  B681               	btfsc	129,3,c	;volatile
  7659   001FC8  EFE8  F00F         	goto	u2211
  7660   001FCC  EFEA  F00F         	goto	u2210
  7661   001FD0                     u2211:
  7662   001FD0  EFED  F00F         	goto	l98
  7663   001FD4                     u2210:
  7664   001FD4                     
  7665                           ;matrix_keypad.c: 54:  {;matrix_keypad.c: 55:   return 8;
  7666   001FD4  0E08               	movlw	8
  7667   001FD6  EF24  F010         	goto	l87
  7668   001FDA                     l98:
  7669   001FDA  B881               	btfsc	129,4,c	;volatile
  7670   001FDC  EFF2  F00F         	goto	u2221
  7671   001FE0  EFF4  F00F         	goto	u2220
  7672   001FE4                     u2221:
  7673   001FE4  EFF7  F00F         	goto	l95
  7674   001FE8                     u2220:
  7675   001FE8                     
  7676                           ;matrix_keypad.c: 58:  {;matrix_keypad.c: 59:   return 11;
  7677   001FE8  0E0B               	movlw	11
  7678   001FEA  EF24  F010         	goto	l87
  7679   001FEE                     l95:
  7680                           
  7681                           ;matrix_keypad.c: 62:  PORTBbits.RB5 = 1;
  7682   001FEE  8A81               	bsf	129,5,c	;volatile
  7683                           
  7684                           ;matrix_keypad.c: 63:  PORTBbits.RB6 = 1;
  7685   001FF0  8C81               	bsf	129,6,c	;volatile
  7686                           
  7687                           ;matrix_keypad.c: 64:  PORTBbits.RB7 = 0;
  7688   001FF2  9E81               	bcf	129,7,c	;volatile
  7689                           
  7690                           ;matrix_keypad.c: 66:  PORTBbits.RB7 = 0;
  7691   001FF4  9E81               	bcf	129,7,c	;volatile
  7692                           
  7693                           ;matrix_keypad.c: 68:  if (PORTBbits.RB1 == 0)
  7694   001FF6  B281               	btfsc	129,1,c	;volatile
  7695   001FF8  EF00  F010         	goto	u2231
  7696   001FFC  EF02  F010         	goto	u2230
  7697   002000                     u2231:
  7698   002000  EF05  F010         	goto	l101
  7699   002004                     u2230:
  7700   002004                     
  7701                           ;matrix_keypad.c: 69:  {;matrix_keypad.c: 70:   return 3;
  7702   002004  0E03               	movlw	3
  7703   002006  EF24  F010         	goto	l87
  7704   00200A                     l101:
  7705   00200A  B481               	btfsc	129,2,c	;volatile
  7706   00200C  EF0A  F010         	goto	u2241
  7707   002010  EF0C  F010         	goto	u2240
  7708   002014                     u2241:
  7709   002014  EF0F  F010         	goto	l103
  7710   002018                     u2240:
  7711   002018                     
  7712                           ;matrix_keypad.c: 73:  {;matrix_keypad.c: 74:   return 6;
  7713   002018  0E06               	movlw	6
  7714   00201A  EF24  F010         	goto	l87
  7715   00201E                     l103:
  7716   00201E  B681               	btfsc	129,3,c	;volatile
  7717   002020  EF14  F010         	goto	u2251
  7718   002024  EF16  F010         	goto	u2250
  7719   002028                     u2251:
  7720   002028  EF19  F010         	goto	l105
  7721   00202C                     u2250:
  7722   00202C                     
  7723                           ;matrix_keypad.c: 77:  {;matrix_keypad.c: 78:   return 9;
  7724   00202C  0E09               	movlw	9
  7725   00202E  EF24  F010         	goto	l87
  7726   002032                     l105:
  7727   002032  B881               	btfsc	129,4,c	;volatile
  7728   002034  EF1E  F010         	goto	u2261
  7729   002038  EF20  F010         	goto	u2260
  7730   00203C                     u2261:
  7731   00203C  EF23  F010         	goto	l104
  7732   002040                     u2260:
  7733   002040                     
  7734                           ;matrix_keypad.c: 81:  {;matrix_keypad.c: 82:   return 12;
  7735   002040  0E0C               	movlw	12
  7736   002042  EF24  F010         	goto	l87
  7737   002046                     l104:
  7738   002046                     
  7739                           ;matrix_keypad.c: 85:  return 0xFF;
  7740   002046  0EFF               	movlw	255
  7741   002048                     l87:
  7742   002048  0012               	return		;funcret
  7743   00204A                     __end_of_scan_key:
  7744                           	callstack 0
  7745                           
  7746 ;; *************** function _display_time *****************
  7747 ;; Defined at:
  7748 ;;		line 85 in file "dashboard.c"
  7749 ;; Parameters:    Size  Location     Type
  7750 ;;		None
  7751 ;; Auto vars:     Size  Location     Type
  7752 ;;		None
  7753 ;; Return value:  Size  Location     Type
  7754 ;;                  1    wreg      void 
  7755 ;; Registers used:
  7756 ;;		wreg, fsr0l, fsr0h, status,2, status,0, tblptrl, tblptrh, tblptru, cstack
  7757 ;; Tracked objects:
  7758 ;;		On entry : 0/0
  7759 ;;		On exit  : 0/0
  7760 ;;		Unchanged: 0/0
  7761 ;; Data sizes:     COMRAM   BANK0   BANK1   BANK2   BANK3   BANK4   BANK5
  7762 ;;      Params:         0       0       0       0       0       0       0
  7763 ;;      Locals:         0       0       0       0       0       0       0
  7764 ;;      Temps:          0       0       0       0       0       0       0
  7765 ;;      Totals:         0       0       0       0       0       0       0
  7766 ;;Total ram usage:        0 bytes
  7767 ;; Hardware stack levels used: 1
  7768 ;; Hardware stack levels required when called: 6
  7769 ;; This function calls:
  7770 ;;		_clcd_print
  7771 ;;		_clcd_putch
  7772 ;;		_get_time
  7773 ;; This function is called by:
  7774 ;;		_display_dashboard
  7775 ;; This function uses a non-reentrant model
  7776 ;;
  7777                           
  7778                           	psect	text31
  7779   002BD0                     __ptext31:
  7780                           	callstack 0
  7781   002BD0                     _display_time:
  7782                           	callstack 23
  7783   002BD0                     
  7784                           ;dashboard.c: 87:     get_time();
  7785   002BD0  ECBC  F012         	call	_get_time	;wreg free
  7786   002BD4                     
  7787                           ;dashboard.c: 88:     clcd_print(time,(0xC0 + (0)));
  7788   002BD4  0E90               	movlw	low _time
  7789   002BD6  6E03               	movwf	clcd_print@data^0,c
  7790   002BD8  0E00               	movlw	high _time
  7791   002BDA  6E04               	movwf	(clcd_print@data+1)^0,c
  7792   002BDC  0EC0               	movlw	192
  7793   002BDE  6E05               	movwf	clcd_print@addr^0,c
  7794   002BE0  ECAF  F013         	call	_clcd_print	;wreg free
  7795   002BE4                     
  7796                           ;dashboard.c: 89:     clcd_putch(' ',(0xC0 + (8)));
  7797   002BE4  0EC8               	movlw	200
  7798   002BE6  6E0F               	movwf	clcd_putch@addr^0,c
  7799   002BE8  0E20               	movlw	32
  7800   002BEA  EC13  F016         	call	_clcd_putch
  7801   002BEE  0012               	return		;funcret
  7802   002BF0                     __end_of_display_time:
  7803                           	callstack 0
  7804                           
  7805 ;; *************** function _get_time *****************
  7806 ;; Defined at:
  7807 ;;		line 16 in file "rtc.c"
  7808 ;; Parameters:    Size  Location     Type
  7809 ;;		None
  7810 ;; Auto vars:     Size  Location     Type
  7811 ;;		None
  7812 ;; Return value:  Size  Location     Type
  7813 ;;                  1    wreg      void 
  7814 ;; Registers used:
  7815 ;;		wreg, status,2, status,0, cstack
  7816 ;; Tracked objects:
  7817 ;;		On entry : 0/0
  7818 ;;		On exit  : 0/0
  7819 ;;		Unchanged: 0/0
  7820 ;; Data sizes:     COMRAM   BANK0   BANK1   BANK2   BANK3   BANK4   BANK5
  7821 ;;      Params:         0       0       0       0       0       0       0
  7822 ;;      Locals:         0       0       0       0       0       0       0
  7823 ;;      Temps:          0       0       0       0       0       0       0
  7824 ;;      Totals:         0       0       0       0       0       0       0
  7825 ;;Total ram usage:        0 bytes
  7826 ;; Hardware stack levels used: 1
  7827 ;; Hardware stack levels required when called: 5
  7828 ;; This function calls:
  7829 ;;		_read_ds1307
  7830 ;; This function is called by:
  7831 ;;		_display_dashboard
  7832 ;;		_display_time
  7833 ;; This function uses a non-reentrant model
  7834 ;;
  7835                           
  7836                           	psect	text32
  7837   002578                     __ptext32:
  7838                           	callstack 0
  7839   002578                     _get_time:
  7840                           	callstack 24
  7841   002578                     
  7842                           ;rtc.c: 18:  clock_reg[0] = read_ds1307(0x02);
  7843   002578  0E02               	movlw	2
  7844   00257A  EC9F  F015         	call	_read_ds1307
  7845   00257E  6E39               	movwf	_clock_reg^0,c
  7846                           
  7847                           ;rtc.c: 19:  clock_reg[1] = read_ds1307(0x01);
  7848   002580  0E01               	movlw	1
  7849   002582  EC9F  F015         	call	_read_ds1307
  7850   002586  6E3A               	movwf	(_clock_reg+1)^0,c
  7851                           
  7852                           ;rtc.c: 20:  clock_reg[2] = read_ds1307(0x00);
  7853   002588  0E00               	movlw	0
  7854   00258A  EC9F  F015         	call	_read_ds1307
  7855   00258E  6E3B               	movwf	(_clock_reg+2)^0,c
  7856   002590                     
  7857                           ;rtc.c: 22:  if (clock_reg[0] & 0x40)
  7858   002590  AC39               	btfss	_clock_reg^0,6,c
  7859   002592  EFCD  F012         	goto	u3261
  7860   002596  EFCF  F012         	goto	u3260
  7861   00259A                     u3261:
  7862   00259A  EFDB  F012         	goto	l3920
  7863   00259E                     u3260:
  7864   00259E                     
  7865                           ;rtc.c: 23:  {;rtc.c: 24:   time[0] = '0' + ((clock_reg[0] >> 4) & 0x01);
  7866   00259E  3839               	swapf	_clock_reg^0,w,c
  7867   0025A0  0B0F               	andlw	15
  7868   0025A2  0B01               	andlw	1
  7869   0025A4  0F30               	addlw	48
  7870   0025A6  0100               	movlb	0	; () banked
  7871   0025A8  6F90               	movwf	_time& (0+255),b
  7872                           
  7873                           ;rtc.c: 25:   time[1] = '0' + (clock_reg[0] & 0x0F);
  7874   0025AA  5039               	movf	_clock_reg^0,w,c
  7875   0025AC  0B0F               	andlw	15
  7876   0025AE  0F30               	addlw	48
  7877   0025B0  6F91               	movwf	(_time+1)& (0+255),b
  7878                           
  7879                           ;rtc.c: 26:  }
  7880   0025B2  EFE5  F012         	goto	l3922
  7881   0025B6                     l3920:
  7882                           
  7883                           ;rtc.c: 28:  {;rtc.c: 29:   time[0] = '0' + ((clock_reg[0] >> 4) & 0x03);
  7884   0025B6  3839               	swapf	_clock_reg^0,w,c
  7885   0025B8  0B0F               	andlw	15
  7886   0025BA  0B03               	andlw	3
  7887   0025BC  0F30               	addlw	48
  7888   0025BE  0100               	movlb	0	; () banked
  7889   0025C0  6F90               	movwf	_time& (0+255),b
  7890                           
  7891                           ;rtc.c: 30:   time[1] = '0' + (clock_reg[0] & 0x0F);
  7892   0025C2  5039               	movf	_clock_reg^0,w,c
  7893   0025C4  0B0F               	andlw	15
  7894   0025C6  0F30               	addlw	48
  7895   0025C8  6F91               	movwf	(_time+1)& (0+255),b
  7896   0025CA                     l3922:
  7897                           
  7898                           ; BSR set to: 0
  7899                           ;rtc.c: 32:  time[2] = ':';
  7900   0025CA  0E3A               	movlw	58
  7901   0025CC  6F92               	movwf	(_time+2)& (0+255),b
  7902   0025CE                     
  7903                           ; BSR set to: 0
  7904                           ;rtc.c: 33:  time[3] = '0' + ((clock_reg[1] >> 4) & 0x0F);
  7905   0025CE  383A               	swapf	(_clock_reg+1)^0,w,c
  7906   0025D0  0B0F               	andlw	15
  7907   0025D2  0B0F               	andlw	15
  7908   0025D4  0F30               	addlw	48
  7909   0025D6  6F93               	movwf	(_time+3)& (0+255),b
  7910   0025D8                     
  7911                           ; BSR set to: 0
  7912                           ;rtc.c: 34:  time[4] = '0' + (clock_reg[1] & 0x0F);
  7913   0025D8  503A               	movf	(_clock_reg+1)^0,w,c
  7914   0025DA  0B0F               	andlw	15
  7915   0025DC  0F30               	addlw	48
  7916   0025DE  6F94               	movwf	(_time+4)& (0+255),b
  7917   0025E0                     
  7918                           ; BSR set to: 0
  7919                           ;rtc.c: 35:  time[5] = ':';
  7920   0025E0  0E3A               	movlw	58
  7921   0025E2  6F95               	movwf	(_time+5)& (0+255),b
  7922                           
  7923                           ;rtc.c: 36:  time[6] = '0' + ((clock_reg[2] >> 4) & 0x0F);
  7924   0025E4  383B               	swapf	(_clock_reg+2)^0,w,c
  7925   0025E6  0B0F               	andlw	15
  7926   0025E8  0B0F               	andlw	15
  7927   0025EA  0F30               	addlw	48
  7928   0025EC  6F96               	movwf	(_time+6)& (0+255),b
  7929                           
  7930                           ;rtc.c: 37:  time[7] = '0' + (clock_reg[2] & 0x0F);
  7931   0025EE  503B               	movf	(_clock_reg+2)^0,w,c
  7932   0025F0  0B0F               	andlw	15
  7933   0025F2  0F30               	addlw	48
  7934   0025F4  6F97               	movwf	(_time+7)& (0+255),b
  7935   0025F6                     
  7936                           ; BSR set to: 0
  7937                           ;rtc.c: 38:  time[8] = '\0';
  7938   0025F6  0E00               	movlw	0
  7939   0025F8  6F98               	movwf	(_time+8)& (0+255),b
  7940   0025FA                     
  7941                           ; BSR set to: 0
  7942   0025FA  0012               	return		;funcret
  7943   0025FC                     __end_of_get_time:
  7944                           	callstack 0
  7945                           
  7946 ;; *************** function _read_ds1307 *****************
  7947 ;; Defined at:
  7948 ;;		line 92 in file "rtc.c"
  7949 ;; Parameters:    Size  Location     Type
  7950 ;;  address         1    wreg     unsigned char 
  7951 ;; Auto vars:     Size  Location     Type
  7952 ;;  address         1    1[COMRAM] unsigned char 
  7953 ;;  data            1    2[COMRAM] unsigned char 
  7954 ;; Return value:  Size  Location     Type
  7955 ;;                  1    wreg      unsigned char 
  7956 ;; Registers used:
  7957 ;;		wreg, status,2, cstack
  7958 ;; Tracked objects:
  7959 ;;		On entry : 0/0
  7960 ;;		On exit  : 0/0
  7961 ;;		Unchanged: 0/0
  7962 ;; Data sizes:     COMRAM   BANK0   BANK1   BANK2   BANK3   BANK4   BANK5
  7963 ;;      Params:         0       0       0       0       0       0       0
  7964 ;;      Locals:         2       0       0       0       0       0       0
  7965 ;;      Temps:          0       0       0       0       0       0       0
  7966 ;;      Totals:         2       0       0       0       0       0       0
  7967 ;;Total ram usage:        2 bytes
  7968 ;; Hardware stack levels used: 1
  7969 ;; Hardware stack levels required when called: 4
  7970 ;; This function calls:
  7971 ;;		_i2c_read
  7972 ;;		_i2c_rep_start
  7973 ;;		_i2c_start
  7974 ;;		_i2c_stop
  7975 ;;		_i2c_write
  7976 ;; This function is called by:
  7977 ;;		_get_time
  7978 ;;		_init_ds1307
  7979 ;; This function uses a non-reentrant model
  7980 ;;
  7981                           
  7982                           	psect	text33
  7983   002B3E                     __ptext33:
  7984                           	callstack 0
  7985   002B3E                     _read_ds1307:
  7986                           	callstack 24
  7987                           
  7988                           ; BSR set to: 0
  7989                           ;incstack = 0
  7990                           ;read_ds1307@address stored from wreg
  7991   002B3E  6E02               	movwf	read_ds1307@address^0,c
  7992   002B40                     
  7993                           ;rtc.c: 92: unsigned char read_ds1307(unsigned char address);rtc.c: 93: {;rtc.c: 94:  un
      +                          signed char data;;rtc.c: 96:  i2c_start();
  7994   002B40  EC60  F016         	call	_i2c_start	;wreg free
  7995   002B44                     
  7996                           ;rtc.c: 97:  i2c_write(0xD0);
  7997   002B44  0ED0               	movlw	208
  7998   002B46  EC50  F016         	call	_i2c_write
  7999   002B4A                     
  8000                           ;rtc.c: 98:  i2c_write(address);
  8001   002B4A  5002               	movf	read_ds1307@address^0,w,c
  8002   002B4C  EC50  F016         	call	_i2c_write
  8003   002B50                     
  8004                           ;rtc.c: 99:  i2c_rep_start();
  8005   002B50  EC64  F016         	call	_i2c_rep_start	;wreg free
  8006   002B54                     
  8007                           ;rtc.c: 100:  i2c_write(0xD1);
  8008   002B54  0ED1               	movlw	209
  8009   002B56  EC50  F016         	call	_i2c_write
  8010                           
  8011                           ;rtc.c: 101:  data = i2c_read();
  8012   002B5A  EC56  F016         	call	_i2c_read	;wreg free
  8013   002B5E  6E03               	movwf	read_ds1307@data^0,c
  8014   002B60                     
  8015                           ;rtc.c: 102:  i2c_stop();
  8016   002B60  EC5C  F016         	call	_i2c_stop	;wreg free
  8017                           
  8018                           ;rtc.c: 104:  return data;
  8019   002B64  5003               	movf	read_ds1307@data^0,w,c
  8020   002B66  0012               	return		;funcret
  8021   002B68                     __end_of_read_ds1307:
  8022                           	callstack 0
  8023                           
  8024 ;; *************** function _i2c_write *****************
  8025 ;; Defined at:
  8026 ;;		line 55 in file "i2c.c"
  8027 ;; Parameters:    Size  Location     Type
  8028 ;;  data            1    wreg     unsigned char 
  8029 ;; Auto vars:     Size  Location     Type
  8030 ;;  data            1    0[COMRAM] unsigned char 
  8031 ;; Return value:  Size  Location     Type
  8032 ;;                  1    wreg      void 
  8033 ;; Registers used:
  8034 ;;		wreg, cstack
  8035 ;; Tracked objects:
  8036 ;;		On entry : 0/0
  8037 ;;		On exit  : 0/0
  8038 ;;		Unchanged: 0/0
  8039 ;; Data sizes:     COMRAM   BANK0   BANK1   BANK2   BANK3   BANK4   BANK5
  8040 ;;      Params:         0       0       0       0       0       0       0
  8041 ;;      Locals:         1       0       0       0       0       0       0
  8042 ;;      Temps:          0       0       0       0       0       0       0
  8043 ;;      Totals:         1       0       0       0       0       0       0
  8044 ;;Total ram usage:        1 bytes
  8045 ;; Hardware stack levels used: 1
  8046 ;; Hardware stack levels required when called: 2
  8047 ;; This function calls:
  8048 ;;		_i2c_idle
  8049 ;; This function is called by:
  8050 ;;		_write_ds1307
  8051 ;;		_read_ds1307
  8052 ;;		_write_external_eeprom
  8053 ;;		_read_external_eeprom
  8054 ;; This function uses a non-reentrant model
  8055 ;;
  8056                           
  8057                           	psect	text34
  8058   002CA0                     __ptext34:
  8059                           	callstack 0
  8060   002CA0                     _i2c_write:
  8061                           	callstack 27
  8062                           
  8063                           ;incstack = 0
  8064                           ;i2c_write@data stored from wreg
  8065   002CA0  6E01               	movwf	i2c_write@data^0,c
  8066   002CA2                     
  8067                           ;i2c.c: 55: void i2c_write(unsigned char data);i2c.c: 56: {;i2c.c: 57:  SSPBUF = data;
  8068   002CA2  C001  FFC9         	movff	i2c_write@data,4041	;volatile
  8069   002CA6                     
  8070                           ;i2c.c: 58:  i2c_idle();
  8071   002CA6  EC47  F016         	call	_i2c_idle	;wreg free
  8072   002CAA  0012               	return		;funcret
  8073   002CAC                     __end_of_i2c_write:
  8074                           	callstack 0
  8075                           
  8076 ;; *************** function _i2c_stop *****************
  8077 ;; Defined at:
  8078 ;;		line 43 in file "i2c.c"
  8079 ;; Parameters:    Size  Location     Type
  8080 ;;		None
  8081 ;; Auto vars:     Size  Location     Type
  8082 ;;		None
  8083 ;; Return value:  Size  Location     Type
  8084 ;;                  1    wreg      void 
  8085 ;; Registers used:
  8086 ;;		cstack
  8087 ;; Tracked objects:
  8088 ;;		On entry : 0/0
  8089 ;;		On exit  : 0/0
  8090 ;;		Unchanged: 0/0
  8091 ;; Data sizes:     COMRAM   BANK0   BANK1   BANK2   BANK3   BANK4   BANK5
  8092 ;;      Params:         0       0       0       0       0       0       0
  8093 ;;      Locals:         0       0       0       0       0       0       0
  8094 ;;      Temps:          0       0       0       0       0       0       0
  8095 ;;      Totals:         0       0       0       0       0       0       0
  8096 ;;Total ram usage:        0 bytes
  8097 ;; Hardware stack levels used: 1
  8098 ;; Hardware stack levels required when called: 2
  8099 ;; This function calls:
  8100 ;;		_i2c_idle
  8101 ;; This function is called by:
  8102 ;;		_write_ds1307
  8103 ;;		_read_ds1307
  8104 ;;		_write_external_eeprom
  8105 ;;		_read_external_eeprom
  8106 ;; This function uses a non-reentrant model
  8107 ;;
  8108                           
  8109                           	psect	text35
  8110   002CB8                     __ptext35:
  8111                           	callstack 0
  8112   002CB8                     _i2c_stop:
  8113                           	callstack 27
  8114   002CB8                     
  8115                           ;i2c.c: 45:  PEN = 1;
  8116   002CB8  84C5               	bsf	4037,2,c	;volatile
  8117   002CBA                     
  8118                           ;i2c.c: 46:  i2c_idle();
  8119   002CBA  EC47  F016         	call	_i2c_idle	;wreg free
  8120   002CBE  0012               	return		;funcret
  8121   002CC0                     __end_of_i2c_stop:
  8122                           	callstack 0
  8123                           
  8124 ;; *************** function _i2c_start *****************
  8125 ;; Defined at:
  8126 ;;		line 37 in file "i2c.c"
  8127 ;; Parameters:    Size  Location     Type
  8128 ;;		None
  8129 ;; Auto vars:     Size  Location     Type
  8130 ;;		None
  8131 ;; Return value:  Size  Location     Type
  8132 ;;                  1    wreg      void 
  8133 ;; Registers used:
  8134 ;;		cstack
  8135 ;; Tracked objects:
  8136 ;;		On entry : 0/0
  8137 ;;		On exit  : 0/0
  8138 ;;		Unchanged: 0/0
  8139 ;; Data sizes:     COMRAM   BANK0   BANK1   BANK2   BANK3   BANK4   BANK5
  8140 ;;      Params:         0       0       0       0       0       0       0
  8141 ;;      Locals:         0       0       0       0       0       0       0
  8142 ;;      Temps:          0       0       0       0       0       0       0
  8143 ;;      Totals:         0       0       0       0       0       0       0
  8144 ;;Total ram usage:        0 bytes
  8145 ;; Hardware stack levels used: 1
  8146 ;; Hardware stack levels required when called: 2
  8147 ;; This function calls:
  8148 ;;		_i2c_idle
  8149 ;; This function is called by:
  8150 ;;		_write_ds1307
  8151 ;;		_read_ds1307
  8152 ;;		_write_external_eeprom
  8153 ;;		_read_external_eeprom
  8154 ;; This function uses a non-reentrant model
  8155 ;;
  8156                           
  8157                           	psect	text36
  8158   002CC0                     __ptext36:
  8159                           	callstack 0
  8160   002CC0                     _i2c_start:
  8161                           	callstack 27
  8162   002CC0                     
  8163                           ;i2c.c: 39:  SEN = 1;
  8164   002CC0  80C5               	bsf	4037,0,c	;volatile
  8165   002CC2                     
  8166                           ;i2c.c: 40:  i2c_idle();
  8167   002CC2  EC47  F016         	call	_i2c_idle	;wreg free
  8168   002CC6  0012               	return		;funcret
  8169   002CC8                     __end_of_i2c_start:
  8170                           	callstack 0
  8171                           
  8172 ;; *************** function _i2c_rep_start *****************
  8173 ;; Defined at:
  8174 ;;		line 49 in file "i2c.c"
  8175 ;; Parameters:    Size  Location     Type
  8176 ;;		None
  8177 ;; Auto vars:     Size  Location     Type
  8178 ;;		None
  8179 ;; Return value:  Size  Location     Type
  8180 ;;                  1    wreg      void 
  8181 ;; Registers used:
  8182 ;;		cstack
  8183 ;; Tracked objects:
  8184 ;;		On entry : 0/0
  8185 ;;		On exit  : 0/0
  8186 ;;		Unchanged: 0/0
  8187 ;; Data sizes:     COMRAM   BANK0   BANK1   BANK2   BANK3   BANK4   BANK5
  8188 ;;      Params:         0       0       0       0       0       0       0
  8189 ;;      Locals:         0       0       0       0       0       0       0
  8190 ;;      Temps:          0       0       0       0       0       0       0
  8191 ;;      Totals:         0       0       0       0       0       0       0
  8192 ;;Total ram usage:        0 bytes
  8193 ;; Hardware stack levels used: 1
  8194 ;; Hardware stack levels required when called: 2
  8195 ;; This function calls:
  8196 ;;		_i2c_idle
  8197 ;; This function is called by:
  8198 ;;		_read_ds1307
  8199 ;;		_read_external_eeprom
  8200 ;; This function uses a non-reentrant model
  8201 ;;
  8202                           
  8203                           	psect	text37
  8204   002CC8                     __ptext37:
  8205                           	callstack 0
  8206   002CC8                     _i2c_rep_start:
  8207                           	callstack 25
  8208   002CC8                     
  8209                           ;i2c.c: 51:  RSEN = 1;
  8210   002CC8  82C5               	bsf	4037,1,c	;volatile
  8211   002CCA                     
  8212                           ;i2c.c: 52:  i2c_idle();
  8213   002CCA  EC47  F016         	call	_i2c_idle	;wreg free
  8214   002CCE  0012               	return		;funcret
  8215   002CD0                     __end_of_i2c_rep_start:
  8216                           	callstack 0
  8217                           
  8218 ;; *************** function _i2c_read *****************
  8219 ;; Defined at:
  8220 ;;		line 73 in file "i2c.c"
  8221 ;; Parameters:    Size  Location     Type
  8222 ;;		None
  8223 ;; Auto vars:     Size  Location     Type
  8224 ;;		None
  8225 ;; Return value:  Size  Location     Type
  8226 ;;                  1    wreg      unsigned char 
  8227 ;; Registers used:
  8228 ;;		wreg, status,2, cstack
  8229 ;; Tracked objects:
  8230 ;;		On entry : 0/0
  8231 ;;		On exit  : 0/0
  8232 ;;		Unchanged: 0/0
  8233 ;; Data sizes:     COMRAM   BANK0   BANK1   BANK2   BANK3   BANK4   BANK5
  8234 ;;      Params:         0       0       0       0       0       0       0
  8235 ;;      Locals:         0       0       0       0       0       0       0
  8236 ;;      Temps:          0       0       0       0       0       0       0
  8237 ;;      Totals:         0       0       0       0       0       0       0
  8238 ;;Total ram usage:        0 bytes
  8239 ;; Hardware stack levels used: 1
  8240 ;; Hardware stack levels required when called: 3
  8241 ;; This function calls:
  8242 ;;		_i2c_no_ack
  8243 ;;		_i2c_rx_mode
  8244 ;; This function is called by:
  8245 ;;		_read_ds1307
  8246 ;;		_read_external_eeprom
  8247 ;; This function uses a non-reentrant model
  8248 ;;
  8249                           
  8250                           	psect	text38
  8251   002CAC                     __ptext38:
  8252                           	callstack 0
  8253   002CAC                     _i2c_read:
  8254                           	callstack 24
  8255   002CAC                     
  8256                           ;i2c.c: 75:  i2c_rx_mode();
  8257   002CAC  EC68  F016         	call	_i2c_rx_mode	;wreg free
  8258                           
  8259                           ;i2c.c: 76:  i2c_no_ack();
  8260   002CB0  EC70  F016         	call	_i2c_no_ack	;wreg free
  8261   002CB4                     
  8262                           ;i2c.c: 78:  return SSPBUF;
  8263   002CB4  50C9               	movf	201,w,c	;volatile
  8264   002CB6  0012               	return		;funcret
  8265   002CB8                     __end_of_i2c_read:
  8266                           	callstack 0
  8267                           
  8268 ;; *************** function _i2c_rx_mode *****************
  8269 ;; Defined at:
  8270 ;;		line 61 in file "i2c.c"
  8271 ;; Parameters:    Size  Location     Type
  8272 ;;		None
  8273 ;; Auto vars:     Size  Location     Type
  8274 ;;		None
  8275 ;; Return value:  Size  Location     Type
  8276 ;;                  1    wreg      void 
  8277 ;; Registers used:
  8278 ;;		cstack
  8279 ;; Tracked objects:
  8280 ;;		On entry : 0/0
  8281 ;;		On exit  : 0/0
  8282 ;;		Unchanged: 0/0
  8283 ;; Data sizes:     COMRAM   BANK0   BANK1   BANK2   BANK3   BANK4   BANK5
  8284 ;;      Params:         0       0       0       0       0       0       0
  8285 ;;      Locals:         0       0       0       0       0       0       0
  8286 ;;      Temps:          0       0       0       0       0       0       0
  8287 ;;      Totals:         0       0       0       0       0       0       0
  8288 ;;Total ram usage:        0 bytes
  8289 ;; Hardware stack levels used: 1
  8290 ;; Hardware stack levels required when called: 2
  8291 ;; This function calls:
  8292 ;;		_i2c_idle
  8293 ;; This function is called by:
  8294 ;;		_i2c_read
  8295 ;; This function uses a non-reentrant model
  8296 ;;
  8297                           
  8298                           	psect	text39
  8299   002CD0                     __ptext39:
  8300                           	callstack 0
  8301   002CD0                     _i2c_rx_mode:
  8302                           	callstack 24
  8303   002CD0                     
  8304                           ;i2c.c: 63:  RCEN = 1;
  8305   002CD0  86C5               	bsf	4037,3,c	;volatile
  8306   002CD2                     
  8307                           ;i2c.c: 64:  i2c_idle();
  8308   002CD2  EC47  F016         	call	_i2c_idle	;wreg free
  8309   002CD6  0012               	return		;funcret
  8310   002CD8                     __end_of_i2c_rx_mode:
  8311                           	callstack 0
  8312                           
  8313 ;; *************** function _i2c_idle *****************
  8314 ;; Defined at:
  8315 ;;		line 23 in file "i2c.c"
  8316 ;; Parameters:    Size  Location     Type
  8317 ;;		None
  8318 ;; Auto vars:     Size  Location     Type
  8319 ;;		None
  8320 ;; Return value:  Size  Location     Type
  8321 ;;                  1    wreg      void 
  8322 ;; Registers used:
  8323 ;;		None
  8324 ;; Tracked objects:
  8325 ;;		On entry : 0/0
  8326 ;;		On exit  : 0/0
  8327 ;;		Unchanged: 0/0
  8328 ;; Data sizes:     COMRAM   BANK0   BANK1   BANK2   BANK3   BANK4   BANK5
  8329 ;;      Params:         0       0       0       0       0       0       0
  8330 ;;      Locals:         0       0       0       0       0       0       0
  8331 ;;      Temps:          0       0       0       0       0       0       0
  8332 ;;      Totals:         0       0       0       0       0       0       0
  8333 ;;Total ram usage:        0 bytes
  8334 ;; Hardware stack levels used: 1
  8335 ;; Hardware stack levels required when called: 1
  8336 ;; This function calls:
  8337 ;;		Nothing
  8338 ;; This function is called by:
  8339 ;;		_i2c_start
  8340 ;;		_i2c_stop
  8341 ;;		_i2c_rep_start
  8342 ;;		_i2c_write
  8343 ;;		_i2c_rx_mode
  8344 ;; This function uses a non-reentrant model
  8345 ;;
  8346                           
  8347                           	psect	text40
  8348   002C8E                     __ptext40:
  8349                           	callstack 0
  8350   002C8E                     _i2c_idle:
  8351                           	callstack 27
  8352   002C8E                     l579:
  8353   002C8E  A69E               	btfss	3998,3,c	;volatile
  8354   002C90  EF4C  F016         	goto	u2101
  8355   002C94  EF4E  F016         	goto	u2100
  8356   002C98                     u2101:
  8357   002C98  EF47  F016         	goto	l579
  8358   002C9C                     u2100:
  8359   002C9C                     
  8360                           ;i2c.c: 26:  SSPIF = 0;
  8361   002C9C  969E               	bcf	3998,3,c	;volatile
  8362   002C9E  0012               	return		;funcret
  8363   002CA0                     __end_of_i2c_idle:
  8364                           	callstack 0
  8365                           
  8366 ;; *************** function _i2c_no_ack *****************
  8367 ;; Defined at:
  8368 ;;		line 67 in file "i2c.c"
  8369 ;; Parameters:    Size  Location     Type
  8370 ;;		None
  8371 ;; Auto vars:     Size  Location     Type
  8372 ;;		None
  8373 ;; Return value:  Size  Location     Type
  8374 ;;                  1    wreg      void 
  8375 ;; Registers used:
  8376 ;;		None
  8377 ;; Tracked objects:
  8378 ;;		On entry : 0/0
  8379 ;;		On exit  : 0/0
  8380 ;;		Unchanged: 0/0
  8381 ;; Data sizes:     COMRAM   BANK0   BANK1   BANK2   BANK3   BANK4   BANK5
  8382 ;;      Params:         0       0       0       0       0       0       0
  8383 ;;      Locals:         0       0       0       0       0       0       0
  8384 ;;      Temps:          0       0       0       0       0       0       0
  8385 ;;      Totals:         0       0       0       0       0       0       0
  8386 ;;Total ram usage:        0 bytes
  8387 ;; Hardware stack levels used: 1
  8388 ;; Hardware stack levels required when called: 1
  8389 ;; This function calls:
  8390 ;;		Nothing
  8391 ;; This function is called by:
  8392 ;;		_i2c_read
  8393 ;; This function uses a non-reentrant model
  8394 ;;
  8395                           
  8396                           	psect	text41
  8397   002CE0                     __ptext41:
  8398                           	callstack 0
  8399   002CE0                     _i2c_no_ack:
  8400                           	callstack 25
  8401   002CE0                     
  8402                           ;i2c.c: 69:  ACKDT = 1;
  8403   002CE0  8AC5               	bsf	4037,5,c	;volatile
  8404                           
  8405                           ;i2c.c: 70:  ACKEN = 1;
  8406   002CE2  88C5               	bsf	4037,4,c	;volatile
  8407   002CE4  0012               	return		;funcret
  8408   002CE6                     __end_of_i2c_no_ack:
  8409                           	callstack 0
  8410                           
  8411 ;; *************** function _display_speed *****************
  8412 ;; Defined at:
  8413 ;;		line 99 in file "dashboard.c"
  8414 ;; Parameters:    Size  Location     Type
  8415 ;;  speed           2   16[COMRAM] int 
  8416 ;; Auto vars:     Size  Location     Type
  8417 ;;		None
  8418 ;; Return value:  Size  Location     Type
  8419 ;;                  1    wreg      void 
  8420 ;; Registers used:
  8421 ;;		wreg, status,2, status,0, cstack
  8422 ;; Tracked objects:
  8423 ;;		On entry : 0/0
  8424 ;;		On exit  : 0/0
  8425 ;;		Unchanged: 0/0
  8426 ;; Data sizes:     COMRAM   BANK0   BANK1   BANK2   BANK3   BANK4   BANK5
  8427 ;;      Params:         2       0       0       0       0       0       0
  8428 ;;      Locals:         0       0       0       0       0       0       0
  8429 ;;      Temps:          0       0       0       0       0       0       0
  8430 ;;      Totals:         2       0       0       0       0       0       0
  8431 ;;Total ram usage:        2 bytes
  8432 ;; Hardware stack levels used: 1
  8433 ;; Hardware stack levels required when called: 3
  8434 ;; This function calls:
  8435 ;;		___awdiv
  8436 ;;		___awmod
  8437 ;;		_clcd_putch
  8438 ;; This function is called by:
  8439 ;;		_display_dashboard
  8440 ;; This function uses a non-reentrant model
  8441 ;;
  8442                           
  8443                           	psect	text42
  8444   0025FC                     __ptext42:
  8445                           	callstack 0
  8446   0025FC                     _display_speed:
  8447                           	callstack 26
  8448   0025FC                     
  8449                           ;dashboard.c: 99: void display_speed(int speed);dashboard.c: 100: {;dashboard.c: 101:   
      +                            if(speed <= 98)
  8450   0025FC  BE12               	btfsc	(display_speed@speed+1)^0,7,c
  8451   0025FE  EF0C  F013         	goto	u3490
  8452   002602  5012               	movf	(display_speed@speed+1)^0,w,c
  8453   002604  E107               	bnz	u3491
  8454   002606  0E63               	movlw	99
  8455   002608  5C11               	subwf	display_speed@speed^0,w,c
  8456   00260A  B0D8               	btfsc	status,0,c
  8457   00260C  EF0A  F013         	goto	u3491
  8458   002610  EF0C  F013         	goto	u3490
  8459   002614                     u3491:
  8460   002614  EF2E  F013         	goto	l4124
  8461   002618                     u3490:
  8462   002618                     
  8463                           ;dashboard.c: 102:     {;dashboard.c: 103:         clcd_putch((speed/10)+48,(0xC0 + (13)
      +                          ));
  8464   002618  0ECD               	movlw	205
  8465   00261A  6E0F               	movwf	clcd_putch@addr^0,c
  8466   00261C  C011  F007         	movff	display_speed@speed,___awdiv@dividend
  8467   002620  C012  F008         	movff	display_speed@speed+1,___awdiv@dividend+1
  8468   002624  0E00               	movlw	0
  8469   002626  6E0A               	movwf	(___awdiv@divisor+1)^0,c
  8470   002628  0E0A               	movlw	10
  8471   00262A  6E09               	movwf	___awdiv@divisor^0,c
  8472   00262C  EC79  F011         	call	___awdiv	;wreg free
  8473   002630  5007               	movf	?___awdiv^0,w,c
  8474   002632  0F30               	addlw	48
  8475   002634  EC13  F016         	call	_clcd_putch
  8476                           
  8477                           ;dashboard.c: 104:         clcd_putch((speed%10)+48,(0xC0 + (14)));
  8478   002638  0ECE               	movlw	206
  8479   00263A  6E0F               	movwf	clcd_putch@addr^0,c
  8480   00263C  C011  F001         	movff	display_speed@speed,___awmod@dividend
  8481   002640  C012  F002         	movff	display_speed@speed+1,___awmod@dividend+1
  8482   002644  0E00               	movlw	0
  8483   002646  6E04               	movwf	(___awmod@divisor+1)^0,c
  8484   002648  0E0A               	movlw	10
  8485   00264A  6E03               	movwf	___awmod@divisor^0,c
  8486   00264C  ECDB  F011         	call	___awmod	;wreg free
  8487   002650  5001               	movf	?___awmod^0,w,c
  8488   002652  0F30               	addlw	48
  8489   002654  EC13  F016         	call	_clcd_putch
  8490                           
  8491                           ;dashboard.c: 105:     }
  8492   002658  EF38  F013         	goto	l719
  8493   00265C                     l4124:
  8494                           
  8495                           ;dashboard.c: 107:     {;dashboard.c: 108:         clcd_putch('9',(0xC0 + (13)));
  8496   00265C  0ECD               	movlw	205
  8497   00265E  6E0F               	movwf	clcd_putch@addr^0,c
  8498   002660  0E39               	movlw	57
  8499   002662  EC13  F016         	call	_clcd_putch
  8500                           
  8501                           ;dashboard.c: 109:         clcd_putch('9',(0xC0 + (14)));
  8502   002666  0ECE               	movlw	206
  8503   002668  6E0F               	movwf	clcd_putch@addr^0,c
  8504   00266A  0E39               	movlw	57
  8505   00266C  EC13  F016         	call	_clcd_putch
  8506   002670                     l719:
  8507                           
  8508                           ;dashboard.c: 112:     clcd_putch(' ',(0xC0 + (15)));
  8509   002670  0ECF               	movlw	207
  8510   002672  6E0F               	movwf	clcd_putch@addr^0,c
  8511   002674  0E20               	movlw	32
  8512   002676  EC13  F016         	call	_clcd_putch
  8513   00267A  0012               	return		;funcret
  8514   00267C                     __end_of_display_speed:
  8515                           	callstack 0
  8516                           
  8517 ;; *************** function ___awmod *****************
  8518 ;; Defined at:
  8519 ;;		line 7 in file "C:\Program Files\Microchip\xc8\v2.41\pic\sources\c99\common\awmod.c"
  8520 ;; Parameters:    Size  Location     Type
  8521 ;;  dividend        2    0[COMRAM] int 
  8522 ;;  divisor         2    2[COMRAM] int 
  8523 ;; Auto vars:     Size  Location     Type
  8524 ;;  sign            1    5[COMRAM] unsigned char 
  8525 ;;  counter         1    4[COMRAM] unsigned char 
  8526 ;; Return value:  Size  Location     Type
  8527 ;;                  2    0[COMRAM] int 
  8528 ;; Registers used:
  8529 ;;		wreg, status,2, status,0
  8530 ;; Tracked objects:
  8531 ;;		On entry : 0/0
  8532 ;;		On exit  : 0/0
  8533 ;;		Unchanged: 0/0
  8534 ;; Data sizes:     COMRAM   BANK0   BANK1   BANK2   BANK3   BANK4   BANK5
  8535 ;;      Params:         4       0       0       0       0       0       0
  8536 ;;      Locals:         2       0       0       0       0       0       0
  8537 ;;      Temps:          0       0       0       0       0       0       0
  8538 ;;      Totals:         6       0       0       0       0       0       0
  8539 ;;Total ram usage:        6 bytes
  8540 ;; Hardware stack levels used: 1
  8541 ;; Hardware stack levels required when called: 1
  8542 ;; This function calls:
  8543 ;;		Nothing
  8544 ;; This function is called by:
  8545 ;;		_login_BB
  8546 ;;		_view_log
  8547 ;;		_get_data
  8548 ;;		_set_time
  8549 ;;		_display_speed
  8550 ;; This function uses a non-reentrant model
  8551 ;;
  8552                           
  8553                           	psect	text43
  8554   0023B6                     __ptext43:
  8555                           	callstack 0
  8556   0023B6                     ___awmod:
  8557                           	callstack 25
  8558   0023B6  0E00               	movlw	0
  8559   0023B8  6E06               	movwf	___awmod@sign^0,c
  8560   0023BA  BE02               	btfsc	(___awmod@dividend+1)^0,7,c
  8561   0023BC  EFE4  F011         	goto	u2360
  8562   0023C0  EFE2  F011         	goto	u2361
  8563   0023C4                     u2361:
  8564   0023C4  EFEA  F011         	goto	l3214
  8565   0023C8                     u2360:
  8566   0023C8  6C01               	negf	___awmod@dividend^0,c
  8567   0023CA  1E02               	comf	(___awmod@dividend+1)^0,f,c
  8568   0023CC  B0D8               	btfsc	status,0,c
  8569   0023CE  2A02               	incf	(___awmod@dividend+1)^0,f,c
  8570   0023D0  0E01               	movlw	1
  8571   0023D2  6E06               	movwf	___awmod@sign^0,c
  8572   0023D4                     l3214:
  8573   0023D4  BE04               	btfsc	(___awmod@divisor+1)^0,7,c
  8574   0023D6  EFF1  F011         	goto	u2370
  8575   0023DA  EFEF  F011         	goto	u2371
  8576   0023DE                     u2371:
  8577   0023DE  EFF5  F011         	goto	l3218
  8578   0023E2                     u2370:
  8579   0023E2  6C03               	negf	___awmod@divisor^0,c
  8580   0023E4  1E04               	comf	(___awmod@divisor+1)^0,f,c
  8581   0023E6  B0D8               	btfsc	status,0,c
  8582   0023E8  2A04               	incf	(___awmod@divisor+1)^0,f,c
  8583   0023EA                     l3218:
  8584   0023EA  5003               	movf	___awmod@divisor^0,w,c
  8585   0023EC  1004               	iorwf	(___awmod@divisor+1)^0,w,c
  8586   0023EE  B4D8               	btfsc	status,2,c
  8587   0023F0  EFFC  F011         	goto	u2381
  8588   0023F4  EFFE  F011         	goto	u2380
  8589   0023F8                     u2381:
  8590   0023F8  EF22  F012         	goto	l3234
  8591   0023FC                     u2380:
  8592   0023FC  0E01               	movlw	1
  8593   0023FE  6E05               	movwf	___awmod@counter^0,c
  8594   002400  EF06  F012         	goto	l3224
  8595   002404                     l3222:
  8596   002404  90D8               	bcf	status,0,c
  8597   002406  3603               	rlcf	___awmod@divisor^0,f,c
  8598   002408  3604               	rlcf	(___awmod@divisor+1)^0,f,c
  8599   00240A  2A05               	incf	___awmod@counter^0,f,c
  8600   00240C                     l3224:
  8601   00240C  AE04               	btfss	(___awmod@divisor+1)^0,7,c
  8602   00240E  EF0B  F012         	goto	u2391
  8603   002412  EF0D  F012         	goto	u2390
  8604   002416                     u2391:
  8605   002416  EF02  F012         	goto	l3222
  8606   00241A                     u2390:
  8607   00241A                     l3226:
  8608   00241A  5003               	movf	___awmod@divisor^0,w,c
  8609   00241C  5C01               	subwf	___awmod@dividend^0,w,c
  8610   00241E  5004               	movf	(___awmod@divisor+1)^0,w,c
  8611   002420  5802               	subwfb	(___awmod@dividend+1)^0,w,c
  8612   002422  A0D8               	btfss	status,0,c
  8613   002424  EF16  F012         	goto	u2401
  8614   002428  EF18  F012         	goto	u2400
  8615   00242C                     u2401:
  8616   00242C  EF1C  F012         	goto	l3230
  8617   002430                     u2400:
  8618   002430  5003               	movf	___awmod@divisor^0,w,c
  8619   002432  5E01               	subwf	___awmod@dividend^0,f,c
  8620   002434  5004               	movf	(___awmod@divisor+1)^0,w,c
  8621   002436  5A02               	subwfb	(___awmod@dividend+1)^0,f,c
  8622   002438                     l3230:
  8623   002438  90D8               	bcf	status,0,c
  8624   00243A  3204               	rrcf	(___awmod@divisor+1)^0,f,c
  8625   00243C  3203               	rrcf	___awmod@divisor^0,f,c
  8626   00243E  2E05               	decfsz	___awmod@counter^0,f,c
  8627   002440  EF0D  F012         	goto	l3226
  8628   002444                     l3234:
  8629   002444  5006               	movf	___awmod@sign^0,w,c
  8630   002446  B4D8               	btfsc	status,2,c
  8631   002448  EF28  F012         	goto	u2411
  8632   00244C  EF2A  F012         	goto	u2410
  8633   002450                     u2411:
  8634   002450  EF2E  F012         	goto	l3238
  8635   002454                     u2410:
  8636   002454  6C01               	negf	___awmod@dividend^0,c
  8637   002456  1E02               	comf	(___awmod@dividend+1)^0,f,c
  8638   002458  B0D8               	btfsc	status,0,c
  8639   00245A  2A02               	incf	(___awmod@dividend+1)^0,f,c
  8640   00245C                     l3238:
  8641   00245C  C001  F001         	movff	___awmod@dividend,?___awmod
  8642   002460  C002  F002         	movff	___awmod@dividend+1,?___awmod+1
  8643   002464  0012               	return		;funcret
  8644   002466                     __end_of___awmod:
  8645                           	callstack 0
  8646                           
  8647 ;; *************** function ___awdiv *****************
  8648 ;; Defined at:
  8649 ;;		line 7 in file "C:\Program Files\Microchip\xc8\v2.41\pic\sources\c99\common\awdiv.c"
  8650 ;; Parameters:    Size  Location     Type
  8651 ;;  dividend        2    6[COMRAM] int 
  8652 ;;  divisor         2    8[COMRAM] int 
  8653 ;; Auto vars:     Size  Location     Type
  8654 ;;  quotient        2   12[COMRAM] int 
  8655 ;;  sign            1   11[COMRAM] unsigned char 
  8656 ;;  counter         1   10[COMRAM] unsigned char 
  8657 ;; Return value:  Size  Location     Type
  8658 ;;                  2    6[COMRAM] int 
  8659 ;; Registers used:
  8660 ;;		wreg, status,2, status,0
  8661 ;; Tracked objects:
  8662 ;;		On entry : 0/0
  8663 ;;		On exit  : 0/0
  8664 ;;		Unchanged: 0/0
  8665 ;; Data sizes:     COMRAM   BANK0   BANK1   BANK2   BANK3   BANK4   BANK5
  8666 ;;      Params:         4       0       0       0       0       0       0
  8667 ;;      Locals:         4       0       0       0       0       0       0
  8668 ;;      Temps:          0       0       0       0       0       0       0
  8669 ;;      Totals:         8       0       0       0       0       0       0
  8670 ;;Total ram usage:        8 bytes
  8671 ;; Hardware stack levels used: 1
  8672 ;; Hardware stack levels required when called: 1
  8673 ;; This function calls:
  8674 ;;		Nothing
  8675 ;; This function is called by:
  8676 ;;		_login_BB
  8677 ;;		_view_log
  8678 ;;		_get_data
  8679 ;;		_set_time
  8680 ;;		_display_speed
  8681 ;; This function uses a non-reentrant model
  8682 ;;
  8683                           
  8684                           	psect	text44
  8685   0022F2                     __ptext44:
  8686                           	callstack 0
  8687   0022F2                     ___awdiv:
  8688                           	callstack 25
  8689   0022F2  0E00               	movlw	0
  8690   0022F4  6E0C               	movwf	___awdiv@sign^0,c
  8691   0022F6  BE0A               	btfsc	(___awdiv@divisor+1)^0,7,c
  8692   0022F8  EF82  F011         	goto	u2300
  8693   0022FC  EF80  F011         	goto	u2301
  8694   002300                     u2301:
  8695   002300  EF88  F011         	goto	l3170
  8696   002304                     u2300:
  8697   002304  6C09               	negf	___awdiv@divisor^0,c
  8698   002306  1E0A               	comf	(___awdiv@divisor+1)^0,f,c
  8699   002308  B0D8               	btfsc	status,0,c
  8700   00230A  2A0A               	incf	(___awdiv@divisor+1)^0,f,c
  8701   00230C  0E01               	movlw	1
  8702   00230E  6E0C               	movwf	___awdiv@sign^0,c
  8703   002310                     l3170:
  8704   002310  BE08               	btfsc	(___awdiv@dividend+1)^0,7,c
  8705   002312  EF8F  F011         	goto	u2310
  8706   002316  EF8D  F011         	goto	u2311
  8707   00231A                     u2311:
  8708   00231A  EF95  F011         	goto	l3176
  8709   00231E                     u2310:
  8710   00231E  6C07               	negf	___awdiv@dividend^0,c
  8711   002320  1E08               	comf	(___awdiv@dividend+1)^0,f,c
  8712   002322  B0D8               	btfsc	status,0,c
  8713   002324  2A08               	incf	(___awdiv@dividend+1)^0,f,c
  8714   002326  0E01               	movlw	1
  8715   002328  1A0C               	xorwf	___awdiv@sign^0,f,c
  8716   00232A                     l3176:
  8717   00232A  0E00               	movlw	0
  8718   00232C  6E0E               	movwf	(___awdiv@quotient+1)^0,c
  8719   00232E  0E00               	movlw	0
  8720   002330  6E0D               	movwf	___awdiv@quotient^0,c
  8721   002332  5009               	movf	___awdiv@divisor^0,w,c
  8722   002334  100A               	iorwf	(___awdiv@divisor+1)^0,w,c
  8723   002336  B4D8               	btfsc	status,2,c
  8724   002338  EFA0  F011         	goto	u2321
  8725   00233C  EFA2  F011         	goto	u2320
  8726   002340                     u2321:
  8727   002340  EFCA  F011         	goto	l3198
  8728   002344                     u2320:
  8729   002344  0E01               	movlw	1
  8730   002346  6E0B               	movwf	___awdiv@counter^0,c
  8731   002348  EFAA  F011         	goto	l3184
  8732   00234C                     l3182:
  8733   00234C  90D8               	bcf	status,0,c
  8734   00234E  3609               	rlcf	___awdiv@divisor^0,f,c
  8735   002350  360A               	rlcf	(___awdiv@divisor+1)^0,f,c
  8736   002352  2A0B               	incf	___awdiv@counter^0,f,c
  8737   002354                     l3184:
  8738   002354  AE0A               	btfss	(___awdiv@divisor+1)^0,7,c
  8739   002356  EFAF  F011         	goto	u2331
  8740   00235A  EFB1  F011         	goto	u2330
  8741   00235E                     u2331:
  8742   00235E  EFA6  F011         	goto	l3182
  8743   002362                     u2330:
  8744   002362                     l3186:
  8745   002362  90D8               	bcf	status,0,c
  8746   002364  360D               	rlcf	___awdiv@quotient^0,f,c
  8747   002366  360E               	rlcf	(___awdiv@quotient+1)^0,f,c
  8748   002368  5009               	movf	___awdiv@divisor^0,w,c
  8749   00236A  5C07               	subwf	___awdiv@dividend^0,w,c
  8750   00236C  500A               	movf	(___awdiv@divisor+1)^0,w,c
  8751   00236E  5808               	subwfb	(___awdiv@dividend+1)^0,w,c
  8752   002370  A0D8               	btfss	status,0,c
  8753   002372  EFBD  F011         	goto	u2341
  8754   002376  EFBF  F011         	goto	u2340
  8755   00237A                     u2341:
  8756   00237A  EFC4  F011         	goto	l3194
  8757   00237E                     u2340:
  8758   00237E  5009               	movf	___awdiv@divisor^0,w,c
  8759   002380  5E07               	subwf	___awdiv@dividend^0,f,c
  8760   002382  500A               	movf	(___awdiv@divisor+1)^0,w,c
  8761   002384  5A08               	subwfb	(___awdiv@dividend+1)^0,f,c
  8762   002386  800D               	bsf	___awdiv@quotient^0,0,c
  8763   002388                     l3194:
  8764   002388  90D8               	bcf	status,0,c
  8765   00238A  320A               	rrcf	(___awdiv@divisor+1)^0,f,c
  8766   00238C  3209               	rrcf	___awdiv@divisor^0,f,c
  8767   00238E  2E0B               	decfsz	___awdiv@counter^0,f,c
  8768   002390  EFB1  F011         	goto	l3186
  8769   002394                     l3198:
  8770   002394  500C               	movf	___awdiv@sign^0,w,c
  8771   002396  B4D8               	btfsc	status,2,c
  8772   002398  EFD0  F011         	goto	u2351
  8773   00239C  EFD2  F011         	goto	u2350
  8774   0023A0                     u2351:
  8775   0023A0  EFD6  F011         	goto	l3202
  8776   0023A4                     u2350:
  8777   0023A4  6C0D               	negf	___awdiv@quotient^0,c
  8778   0023A6  1E0E               	comf	(___awdiv@quotient+1)^0,f,c
  8779   0023A8  B0D8               	btfsc	status,0,c
  8780   0023AA  2A0E               	incf	(___awdiv@quotient+1)^0,f,c
  8781   0023AC                     l3202:
  8782   0023AC  C00D  F007         	movff	___awdiv@quotient,?___awdiv
  8783   0023B0  C00E  F008         	movff	___awdiv@quotient+1,?___awdiv+1
  8784   0023B4  0012               	return		;funcret
  8785   0023B6                     __end_of___awdiv:
  8786                           	callstack 0
  8787                           
  8788 ;; *************** function _display_event *****************
  8789 ;; Defined at:
  8790 ;;		line 92 in file "dashboard.c"
  8791 ;; Parameters:    Size  Location     Type
  8792 ;;  event           2   16[COMRAM] PTR unsigned char 
  8793 ;;		 -> STR_56(3), STR_55(3), STR_54(3), STR_53(3), 
  8794 ;;		 -> STR_52(3), STR_51(3), STR_50(3), STR_49(3), 
  8795 ;; Auto vars:     Size  Location     Type
  8796 ;;		None
  8797 ;; Return value:  Size  Location     Type
  8798 ;;                  1    wreg      void 
  8799 ;; Registers used:
  8800 ;;		wreg, fsr0l, fsr0h, status,2, status,0, tblptrl, tblptrh, tblptru, cstack
  8801 ;; Tracked objects:
  8802 ;;		On entry : 0/0
  8803 ;;		On exit  : 0/0
  8804 ;;		Unchanged: 0/0
  8805 ;; Data sizes:     COMRAM   BANK0   BANK1   BANK2   BANK3   BANK4   BANK5
  8806 ;;      Params:         2       0       0       0       0       0       0
  8807 ;;      Locals:         0       0       0       0       0       0       0
  8808 ;;      Temps:          0       0       0       0       0       0       0
  8809 ;;      Totals:         2       0       0       0       0       0       0
  8810 ;;Total ram usage:        2 bytes
  8811 ;; Hardware stack levels used: 1
  8812 ;; Hardware stack levels required when called: 3
  8813 ;; This function calls:
  8814 ;;		_clcd_print
  8815 ;;		_clcd_putch
  8816 ;; This function is called by:
  8817 ;;		_display_dashboard
  8818 ;; This function uses a non-reentrant model
  8819 ;;
  8820                           
  8821                           	psect	text45
  8822   002B68                     __ptext45:
  8823                           	callstack 0
  8824   002B68                     _display_event:
  8825                           	callstack 26
  8826   002B68                     
  8827                           ;dashboard.c: 92: void display_event(char *event);dashboard.c: 93: {;dashboard.c: 94:   
      +                            clcd_print(event,(0xC0 + (9)));
  8828   002B68  C011  F003         	movff	display_event@event,clcd_print@data
  8829   002B6C  C012  F004         	movff	display_event@event+1,clcd_print@data+1
  8830   002B70  0EC9               	movlw	201
  8831   002B72  6E05               	movwf	clcd_print@addr^0,c
  8832   002B74  ECAF  F013         	call	_clcd_print	;wreg free
  8833   002B78                     
  8834                           ;dashboard.c: 95:     clcd_putch(' ',(0xC0 + (11)));
  8835   002B78  0ECB               	movlw	203
  8836   002B7A  6E0F               	movwf	clcd_putch@addr^0,c
  8837   002B7C  0E20               	movlw	32
  8838   002B7E  EC13  F016         	call	_clcd_putch
  8839   002B82                     
  8840                           ;dashboard.c: 96:     clcd_putch(' ',(0xC0 + (12)));
  8841   002B82  0ECC               	movlw	204
  8842   002B84  6E0F               	movwf	clcd_putch@addr^0,c
  8843   002B86  0E20               	movlw	32
  8844   002B88  EC13  F016         	call	_clcd_putch
  8845   002B8C  0012               	return		;funcret
  8846   002B8E                     __end_of_display_event:
  8847                           	callstack 0
  8848                           
  8849 ;; *************** function _clcd_putch *****************
  8850 ;; Defined at:
  8851 ;;		line 51 in file "clcd.c"
  8852 ;; Parameters:    Size  Location     Type
  8853 ;;  data            1    wreg     const unsigned char 
  8854 ;;  addr            1   14[COMRAM] unsigned char 
  8855 ;; Auto vars:     Size  Location     Type
  8856 ;;  data            1   15[COMRAM] const unsigned char 
  8857 ;; Return value:  Size  Location     Type
  8858 ;;                  1    wreg      void 
  8859 ;; Registers used:
  8860 ;;		wreg, status,2, cstack
  8861 ;; Tracked objects:
  8862 ;;		On entry : 0/0
  8863 ;;		On exit  : 0/0
  8864 ;;		Unchanged: 0/0
  8865 ;; Data sizes:     COMRAM   BANK0   BANK1   BANK2   BANK3   BANK4   BANK5
  8866 ;;      Params:         1       0       0       0       0       0       0
  8867 ;;      Locals:         1       0       0       0       0       0       0
  8868 ;;      Temps:          0       0       0       0       0       0       0
  8869 ;;      Totals:         2       0       0       0       0       0       0
  8870 ;;Total ram usage:        2 bytes
  8871 ;; Hardware stack levels used: 1
  8872 ;; Hardware stack levels required when called: 2
  8873 ;; This function calls:
  8874 ;;		_clcd_write
  8875 ;; This function is called by:
  8876 ;;		_login_BB
  8877 ;;		_display_list
  8878 ;;		_view_log
  8879 ;;		_set_time
  8880 ;;		_display_time
  8881 ;;		_display_event
  8882 ;;		_display_speed
  8883 ;; This function uses a non-reentrant model
  8884 ;;
  8885                           
  8886                           	psect	text46
  8887   002C26                     __ptext46:
  8888                           	callstack 0
  8889   002C26                     _clcd_putch:
  8890                           	callstack 24
  8891                           
  8892                           ;incstack = 0
  8893                           ;clcd_putch@data stored from wreg
  8894   002C26  6E10               	movwf	clcd_putch@data^0,c
  8895   002C28                     
  8896                           ;clcd.c: 51: void clcd_putch(const unsigned char data, unsigned char addr);clcd.c: 52: {
      +                          ;clcd.c: 53:  clcd_write(addr, 0);
  8897   002C28  0E00               	movlw	0
  8898   002C2A  6E01               	movwf	clcd_write@control_bit^0,c
  8899   002C2C  500F               	movf	clcd_putch@addr^0,w,c
  8900   002C2E  EC52  F015         	call	_clcd_write
  8901                           
  8902                           ;clcd.c: 54:  clcd_write(data, 1);
  8903   002C32  0E01               	movlw	1
  8904   002C34  6E01               	movwf	clcd_write@control_bit^0,c
  8905   002C36  5010               	movf	clcd_putch@data^0,w,c
  8906   002C38  EC52  F015         	call	_clcd_write
  8907   002C3C  0012               	return		;funcret
  8908   002C3E                     __end_of_clcd_putch:
  8909                           	callstack 0
  8910                           
  8911 ;; *************** function _clcd_print *****************
  8912 ;; Defined at:
  8913 ;;		line 42 in file "clcd.c"
  8914 ;; Parameters:    Size  Location     Type
  8915 ;;  data            2    2[COMRAM] PTR const unsigned char 
  8916 ;;		 -> STR_57(17), STR_56(3), STR_55(3), STR_54(3), 
  8917 ;;		 -> STR_53(3), STR_52(3), STR_51(3), STR_50(3), 
  8918 ;;		 -> STR_49(3), STR_48(13), STR_47(17), STR_46(13), 
  8919 ;;		 -> STR_45(17), STR_41(17), STR_40(17), STR_38(17), 
  8920 ;;		 -> STR_37(17), change_password@chng_psw_temp_star(6), change_password@chng_psw_star(6), STR_33(17), 
  8921 ;;		 -> STR_32(17), time(10), STR_30(5), STR_29(5), 
  8922 ;;		 -> STR_28(17), STR_22(17), STR_21(17), STR_20(17), 
  8923 ;;		 -> STR_19(17), STR_18(17), STR_17(17), STR_16(16), 
  8924 ;;		 -> STR_15(16), STR_14(16), STR_13(16), STR_12(16), 
  8925 ;;		 -> STR_11(16), STR_10(13), STR_9(17), STR_7(5), 
  8926 ;;		 -> STR_6(10), STR_5(17), STR_4(16), STR_3(17), 
  8927 ;;		 -> psw_star(6), 
  8928 ;;  addr            1    4[COMRAM] unsigned char 
  8929 ;; Auto vars:     Size  Location     Type
  8930 ;;		None
  8931 ;; Return value:  Size  Location     Type
  8932 ;;                  1    wreg      void 
  8933 ;; Registers used:
  8934 ;;		wreg, fsr0l, fsr0h, status,2, status,0, tblptrl, tblptrh, tblptru, cstack
  8935 ;; Tracked objects:
  8936 ;;		On entry : 0/0
  8937 ;;		On exit  : 0/0
  8938 ;;		Unchanged: 0/0
  8939 ;; Data sizes:     COMRAM   BANK0   BANK1   BANK2   BANK3   BANK4   BANK5
  8940 ;;      Params:         3       0       0       0       0       0       0
  8941 ;;      Locals:         0       0       0       0       0       0       0
  8942 ;;      Temps:          0       0       0       0       0       0       0
  8943 ;;      Totals:         3       0       0       0       0       0       0
  8944 ;;Total ram usage:        3 bytes
  8945 ;; Hardware stack levels used: 1
  8946 ;; Hardware stack levels required when called: 2
  8947 ;; This function calls:
  8948 ;;		_clcd_write
  8949 ;; This function is called by:
  8950 ;;		_login_BB
  8951 ;;		_display_menu
  8952 ;;		_display_list
  8953 ;;		_clear_log
  8954 ;;		_download_log
  8955 ;;		_set_time
  8956 ;;		_change_password
  8957 ;;		_display_dashboard
  8958 ;;		_display_time
  8959 ;;		_display_event
  8960 ;; This function uses a non-reentrant model
  8961 ;;
  8962                           
  8963                           	psect	text47
  8964   00275E                     __ptext47:
  8965                           	callstack 0
  8966   00275E                     _clcd_print:
  8967                           	callstack 24
  8968   00275E                     
  8969                           ;clcd.c: 42: void clcd_print(const unsigned char *data, unsigned char addr);clcd.c: 43: 
      +                          {;clcd.c: 44:  clcd_write(addr, 0);
  8970   00275E  0E00               	movlw	0
  8971   002760  6E01               	movwf	clcd_write@control_bit^0,c
  8972   002762  5005               	movf	clcd_print@addr^0,w,c
  8973   002764  EC52  F015         	call	_clcd_write
  8974                           
  8975                           ;clcd.c: 45:  while (*data != '\0')
  8976   002768  EFCC  F013         	goto	l3290
  8977   00276C                     l3286:
  8978                           
  8979                           ;clcd.c: 46:  {;clcd.c: 47:   clcd_write(*data++, 1);
  8980   00276C  0E01               	movlw	1
  8981   00276E  6E01               	movwf	clcd_write@control_bit^0,c
  8982   002770  C003  FFF6         	movff	clcd_print@data,tblptrl
  8983   002774  C004  FFF7         	movff	clcd_print@data+1,tblptrh
  8984   002778  6AF8               	clrf	tblptru,c
  8985   00277A  0E05               	movlw	(high __ramtop+-1)
  8986   00277C  64F7               	cpfsgt	tblptrh,c
  8987   00277E  D003               	bra	u2487
  8988   002780  0008               	tblrd		*
  8989   002782  50F5               	movf	tablat,w,c
  8990   002784  D005               	bra	u2480
  8991   002786                     u2487:
  8992   002786  CFF6 FFE9          	movff	tblptrl,fsr0l
  8993   00278A  CFF7 FFEA          	movff	tblptrh,fsr0h
  8994   00278E  50EF               	movf	indf0,w,c
  8995   002790                     u2480:
  8996   002790  EC52  F015         	call	_clcd_write
  8997   002794  4A03               	infsnz	clcd_print@data^0,f,c
  8998   002796  2A04               	incf	(clcd_print@data+1)^0,f,c
  8999   002798                     l3290:
  9000                           
  9001                           ;clcd.c: 45:  while (*data != '\0')
  9002   002798  C003  FFF6         	movff	clcd_print@data,tblptrl
  9003   00279C  C004  FFF7         	movff	clcd_print@data+1,tblptrh
  9004   0027A0  6AF8               	clrf	tblptru,c
  9005   0027A2  0E05               	movlw	(high __ramtop+-1)
  9006   0027A4  64F7               	cpfsgt	tblptrh,c
  9007   0027A6  D003               	bra	u2497
  9008   0027A8  0008               	tblrd		*
  9009   0027AA  50F5               	movf	tablat,w,c
  9010   0027AC  D005               	bra	u2490
  9011   0027AE                     u2497:
  9012   0027AE  CFF6 FFE9          	movff	tblptrl,fsr0l
  9013   0027B2  CFF7 FFEA          	movff	tblptrh,fsr0h
  9014   0027B6  50EF               	movf	indf0,w,c
  9015   0027B8                     u2490:
  9016   0027B8  0900               	iorlw	0
  9017   0027BA  A4D8               	btfss	status,2,c
  9018   0027BC  EFE2  F013         	goto	u2501
  9019   0027C0  EFE4  F013         	goto	u2500
  9020   0027C4                     u2501:
  9021   0027C4  EFB6  F013         	goto	l3286
  9022   0027C8                     u2500:
  9023   0027C8  0012               	return		;funcret
  9024   0027CA                     __end_of_clcd_print:
  9025                           	callstack 0
  9026                           
  9027 ;; *************** function _clcd_write *****************
  9028 ;; Defined at:
  9029 ;;		line 4 in file "clcd.c"
  9030 ;; Parameters:    Size  Location     Type
  9031 ;;  byte            1    wreg     unsigned char 
  9032 ;;  control_bit     1    0[COMRAM] unsigned char 
  9033 ;; Auto vars:     Size  Location     Type
  9034 ;;  byte            1    1[COMRAM] unsigned char 
  9035 ;; Return value:  Size  Location     Type
  9036 ;;                  1    wreg      void 
  9037 ;; Registers used:
  9038 ;;		wreg
  9039 ;; Tracked objects:
  9040 ;;		On entry : 0/0
  9041 ;;		On exit  : 0/0
  9042 ;;		Unchanged: 0/0
  9043 ;; Data sizes:     COMRAM   BANK0   BANK1   BANK2   BANK3   BANK4   BANK5
  9044 ;;      Params:         1       0       0       0       0       0       0
  9045 ;;      Locals:         1       0       0       0       0       0       0
  9046 ;;      Temps:          0       0       0       0       0       0       0
  9047 ;;      Totals:         2       0       0       0       0       0       0
  9048 ;;Total ram usage:        2 bytes
  9049 ;; Hardware stack levels used: 1
  9050 ;; Hardware stack levels required when called: 1
  9051 ;; This function calls:
  9052 ;;		Nothing
  9053 ;; This function is called by:
  9054 ;;		_init_clcd
  9055 ;;		_clcd_print
  9056 ;;		_clcd_putch
  9057 ;; This function uses a non-reentrant model
  9058 ;;
  9059                           
  9060                           	psect	text48
  9061   002AA4                     __ptext48:
  9062                           	callstack 0
  9063   002AA4                     _clcd_write:
  9064                           	callstack 27
  9065                           
  9066                           ;incstack = 0
  9067                           ;clcd_write@byte stored from wreg
  9068   002AA4  6E02               	movwf	clcd_write@byte^0,c
  9069   002AA6                     
  9070                           ;clcd.c: 4: void clcd_write(unsigned char byte, unsigned char control_bit);clcd.c: 5: {;
      +                          clcd.c: 6:  RC1 = control_bit;
  9071   002AA6  B001               	btfsc	clcd_write@control_bit^0,0,c
  9072   002AA8  EF58  F015         	goto	u2121
  9073   002AAC  EF5B  F015         	goto	u2120
  9074   002AB0                     u2121:
  9075   002AB0  8282               	bsf	3970,1,c	;volatile
  9076   002AB2  EF5C  F015         	goto	u2135
  9077   002AB6                     u2120:
  9078   002AB6  9282               	bcf	3970,1,c	;volatile
  9079   002AB8                     u2135:
  9080   002AB8                     
  9081                           ;clcd.c: 7:  PORTD = byte;
  9082   002AB8  C002  FF83         	movff	clcd_write@byte,3971	;volatile
  9083   002ABC                     
  9084                           ;clcd.c: 10:  RC2 = 1;
  9085   002ABC  8482               	bsf	3970,2,c	;volatile
  9086   002ABE                     
  9087                           ;clcd.c: 11:  RC2 = 0;
  9088   002ABE  9482               	bcf	3970,2,c	;volatile
  9089   002AC0                     
  9090                           ;clcd.c: 13:  TRISD7 = 0xFF;
  9091   002AC0  8E95               	bsf	3989,7,c	;volatile
  9092   002AC2                     
  9093                           ;clcd.c: 14:  RC0 = 1;
  9094   002AC2  8082               	bsf	3970,0,c	;volatile
  9095   002AC4                     
  9096                           ;clcd.c: 15:  RC1 = 0;
  9097   002AC4  9282               	bcf	3970,1,c	;volatile
  9098   002AC6                     l3062:
  9099                           
  9100                           ;clcd.c: 18:  {;clcd.c: 19:   RC2 = 1;
  9101   002AC6  8482               	bsf	3970,2,c	;volatile
  9102   002AC8                     
  9103                           ;clcd.c: 20:   RC2 = 0;
  9104   002AC8  9482               	bcf	3970,2,c	;volatile
  9105   002ACA                     
  9106                           ;clcd.c: 21:  } while (RD7);
  9107   002ACA  BE83               	btfsc	3971,7,c	;volatile
  9108   002ACC  EF6A  F015         	goto	u2141
  9109   002AD0  EF6C  F015         	goto	u2140
  9110   002AD4                     u2141:
  9111   002AD4  EF63  F015         	goto	l3062
  9112   002AD8                     u2140:
  9113   002AD8                     
  9114                           ;clcd.c: 23:  RC0 = 0;
  9115   002AD8  9082               	bcf	3970,0,c	;volatile
  9116                           
  9117                           ;clcd.c: 24:  TRISD7 = 0x00;
  9118   002ADA  9E95               	bcf	3989,7,c	;volatile
  9119   002ADC  0012               	return		;funcret
  9120   002ADE                     __end_of_clcd_write:
  9121                           	callstack 0
  9122                           
  9123 ;; *************** function ___xxtofl *****************
  9124 ;; Defined at:
  9125 ;;		line 10 in file "C:\Program Files\Microchip\xc8\v2.41\pic\sources\c99\common\xxtofl.c"
  9126 ;; Parameters:    Size  Location     Type
  9127 ;;  sign            1    wreg     unsigned char 
  9128 ;;  val             4    0[COMRAM] long 
  9129 ;; Auto vars:     Size  Location     Type
  9130 ;;  sign            1    8[COMRAM] unsigned char 
  9131 ;;  arg             4   10[COMRAM] unsigned long 
  9132 ;;  exp             1    9[COMRAM] unsigned char 
  9133 ;; Return value:  Size  Location     Type
  9134 ;;                  4    0[COMRAM] unsigned char 
  9135 ;; Registers used:
  9136 ;;		wreg, status,2, status,0
  9137 ;; Tracked objects:
  9138 ;;		On entry : 0/0
  9139 ;;		On exit  : 0/0
  9140 ;;		Unchanged: 0/0
  9141 ;; Data sizes:     COMRAM   BANK0   BANK1   BANK2   BANK3   BANK4   BANK5
  9142 ;;      Params:         4       0       0       0       0       0       0
  9143 ;;      Locals:         6       0       0       0       0       0       0
  9144 ;;      Temps:          4       0       0       0       0       0       0
  9145 ;;      Totals:        14       0       0       0       0       0       0
  9146 ;;Total ram usage:       14 bytes
  9147 ;; Hardware stack levels used: 1
  9148 ;; Hardware stack levels required when called: 1
  9149 ;; This function calls:
  9150 ;;		Nothing
  9151 ;; This function is called by:
  9152 ;;		_display_dashboard
  9153 ;; This function uses a non-reentrant model
  9154 ;;
  9155                           
  9156                           	psect	text49
  9157   001C62                     __ptext49:
  9158                           	callstack 0
  9159   001C62                     ___xxtofl:
  9160                           	callstack 28
  9161                           
  9162                           ;incstack = 0
  9163                           ;___xxtofl@sign stored from wreg
  9164   001C62  6E09               	movwf	___xxtofl@sign^0,c
  9165   001C64  5009               	movf	___xxtofl@sign^0,w,c
  9166   001C66  B4D8               	btfsc	status,2,c
  9167   001C68  EF38  F00E         	goto	u3801
  9168   001C6C  EF3A  F00E         	goto	u3800
  9169   001C70                     u3801:
  9170   001C70  EF5C  F00E         	goto	l1424
  9171   001C74                     u3800:
  9172   001C74  BE04               	btfsc	(___xxtofl@val+3)^0,7,c
  9173   001C76  EF41  F00E         	goto	u3810
  9174   001C7A  EF3F  F00E         	goto	u3811
  9175   001C7E                     u3811:
  9176   001C7E  EF5C  F00E         	goto	l1424
  9177   001C82                     u3810:
  9178   001C82  C001  F005         	movff	___xxtofl@val,??___xxtofl
  9179   001C86  C002  F006         	movff	___xxtofl@val+1,??___xxtofl+1
  9180   001C8A  C003  F007         	movff	___xxtofl@val+2,??___xxtofl+2
  9181   001C8E  C004  F008         	movff	___xxtofl@val+3,??___xxtofl+3
  9182   001C92  1E05               	comf	??___xxtofl^0,f,c
  9183   001C94  1E06               	comf	(??___xxtofl+1)^0,f,c
  9184   001C96  1E07               	comf	(??___xxtofl+2)^0,f,c
  9185   001C98  1E08               	comf	(??___xxtofl+3)^0,f,c
  9186   001C9A  2A05               	incf	??___xxtofl^0,f,c
  9187   001C9C  0E00               	movlw	0
  9188   001C9E  2206               	addwfc	(??___xxtofl+1)^0,f,c
  9189   001CA0  2207               	addwfc	(??___xxtofl+2)^0,f,c
  9190   001CA2  2208               	addwfc	(??___xxtofl+3)^0,f,c
  9191   001CA4  C005  F00B         	movff	??___xxtofl,___xxtofl@arg
  9192   001CA8  C006  F00C         	movff	??___xxtofl+1,___xxtofl@arg+1
  9193   001CAC  C007  F00D         	movff	??___xxtofl+2,___xxtofl@arg+2
  9194   001CB0  C008  F00E         	movff	??___xxtofl+3,___xxtofl@arg+3
  9195   001CB4  EF64  F00E         	goto	l4314
  9196   001CB8                     l1424:
  9197   001CB8  C001  F00B         	movff	___xxtofl@val,___xxtofl@arg
  9198   001CBC  C002  F00C         	movff	___xxtofl@val+1,___xxtofl@arg+1
  9199   001CC0  C003  F00D         	movff	___xxtofl@val+2,___xxtofl@arg+2
  9200   001CC4  C004  F00E         	movff	___xxtofl@val+3,___xxtofl@arg+3
  9201   001CC8                     l4314:
  9202   001CC8  5001               	movf	___xxtofl@val^0,w,c
  9203   001CCA  1002               	iorwf	(___xxtofl@val+1)^0,w,c
  9204   001CCC  1003               	iorwf	(___xxtofl@val+2)^0,w,c
  9205   001CCE  1004               	iorwf	(___xxtofl@val+3)^0,w,c
  9206   001CD0  A4D8               	btfss	status,2,c
  9207   001CD2  EF6D  F00E         	goto	u3821
  9208   001CD6  EF6F  F00E         	goto	u3820
  9209   001CDA                     u3821:
  9210   001CDA  EF79  F00E         	goto	l4320
  9211   001CDE                     u3820:
  9212   001CDE  0E00               	movlw	0
  9213   001CE0  6E01               	movwf	?___xxtofl^0,c
  9214   001CE2  0E00               	movlw	0
  9215   001CE4  6E02               	movwf	(?___xxtofl+1)^0,c
  9216   001CE6  0E00               	movlw	0
  9217   001CE8  6E03               	movwf	(?___xxtofl+2)^0,c
  9218   001CEA  0E00               	movlw	0
  9219   001CEC  6E04               	movwf	(?___xxtofl+3)^0,c
  9220   001CEE  EF0A  F00F         	goto	l1427
  9221   001CF2                     l4320:
  9222   001CF2  0E96               	movlw	150
  9223   001CF4  6E0A               	movwf	___xxtofl@exp^0,c
  9224   001CF6  EF83  F00E         	goto	l4324
  9225   001CFA                     l4322:
  9226   001CFA  2A0A               	incf	___xxtofl@exp^0,f,c
  9227   001CFC  90D8               	bcf	status,0,c
  9228   001CFE  320E               	rrcf	(___xxtofl@arg+3)^0,f,c
  9229   001D00  320D               	rrcf	(___xxtofl@arg+2)^0,f,c
  9230   001D02  320C               	rrcf	(___xxtofl@arg+1)^0,f,c
  9231   001D04  320B               	rrcf	___xxtofl@arg^0,f,c
  9232   001D06                     l4324:
  9233   001D06  0E00               	movlw	0
  9234   001D08  140B               	andwf	___xxtofl@arg^0,w,c
  9235   001D0A  6E05               	movwf	??___xxtofl^0,c
  9236   001D0C  0E00               	movlw	0
  9237   001D0E  140C               	andwf	(___xxtofl@arg+1)^0,w,c
  9238   001D10  6E06               	movwf	(??___xxtofl+1)^0,c
  9239   001D12  0E00               	movlw	0
  9240   001D14  140D               	andwf	(___xxtofl@arg+2)^0,w,c
  9241   001D16  6E07               	movwf	(??___xxtofl+2)^0,c
  9242   001D18  0EFE               	movlw	254
  9243   001D1A  140E               	andwf	(___xxtofl@arg+3)^0,w,c
  9244   001D1C  6E08               	movwf	(??___xxtofl+3)^0,c
  9245   001D1E  5005               	movf	??___xxtofl^0,w,c
  9246   001D20  1006               	iorwf	(??___xxtofl+1)^0,w,c
  9247   001D22  1007               	iorwf	(??___xxtofl+2)^0,w,c
  9248   001D24  1008               	iorwf	(??___xxtofl+3)^0,w,c
  9249   001D26  A4D8               	btfss	status,2,c
  9250   001D28  EF98  F00E         	goto	u3831
  9251   001D2C  EF9A  F00E         	goto	u3830
  9252   001D30                     u3831:
  9253   001D30  EF7D  F00E         	goto	l4322
  9254   001D34                     u3830:
  9255   001D34  EFA8  F00E         	goto	l1431
  9256   001D38                     l4326:
  9257   001D38  2A0A               	incf	___xxtofl@exp^0,f,c
  9258   001D3A  0E01               	movlw	1
  9259   001D3C  260B               	addwf	___xxtofl@arg^0,f,c
  9260   001D3E  0E00               	movlw	0
  9261   001D40  220C               	addwfc	(___xxtofl@arg+1)^0,f,c
  9262   001D42  220D               	addwfc	(___xxtofl@arg+2)^0,f,c
  9263   001D44  220E               	addwfc	(___xxtofl@arg+3)^0,f,c
  9264   001D46  90D8               	bcf	status,0,c
  9265   001D48  320E               	rrcf	(___xxtofl@arg+3)^0,f,c
  9266   001D4A  320D               	rrcf	(___xxtofl@arg+2)^0,f,c
  9267   001D4C  320C               	rrcf	(___xxtofl@arg+1)^0,f,c
  9268   001D4E  320B               	rrcf	___xxtofl@arg^0,f,c
  9269   001D50                     l1431:
  9270   001D50  0E00               	movlw	0
  9271   001D52  140B               	andwf	___xxtofl@arg^0,w,c
  9272   001D54  6E05               	movwf	??___xxtofl^0,c
  9273   001D56  0E00               	movlw	0
  9274   001D58  140C               	andwf	(___xxtofl@arg+1)^0,w,c
  9275   001D5A  6E06               	movwf	(??___xxtofl+1)^0,c
  9276   001D5C  0E00               	movlw	0
  9277   001D5E  140D               	andwf	(___xxtofl@arg+2)^0,w,c
  9278   001D60  6E07               	movwf	(??___xxtofl+2)^0,c
  9279   001D62  0EFF               	movlw	255
  9280   001D64  140E               	andwf	(___xxtofl@arg+3)^0,w,c
  9281   001D66  6E08               	movwf	(??___xxtofl+3)^0,c
  9282   001D68  5005               	movf	??___xxtofl^0,w,c
  9283   001D6A  1006               	iorwf	(??___xxtofl+1)^0,w,c
  9284   001D6C  1007               	iorwf	(??___xxtofl+2)^0,w,c
  9285   001D6E  1008               	iorwf	(??___xxtofl+3)^0,w,c
  9286   001D70  A4D8               	btfss	status,2,c
  9287   001D72  EFBD  F00E         	goto	u3841
  9288   001D76  EFBF  F00E         	goto	u3840
  9289   001D7A                     u3841:
  9290   001D7A  EF9C  F00E         	goto	l4326
  9291   001D7E                     u3840:
  9292   001D7E  EFC7  F00E         	goto	l4334
  9293   001D82                     l4332:
  9294   001D82  060A               	decf	___xxtofl@exp^0,f,c
  9295   001D84  90D8               	bcf	status,0,c
  9296   001D86  360B               	rlcf	___xxtofl@arg^0,f,c
  9297   001D88  360C               	rlcf	(___xxtofl@arg+1)^0,f,c
  9298   001D8A  360D               	rlcf	(___xxtofl@arg+2)^0,f,c
  9299   001D8C  360E               	rlcf	(___xxtofl@arg+3)^0,f,c
  9300   001D8E                     l4334:
  9301   001D8E  BE0D               	btfsc	(___xxtofl@arg+2)^0,7,c
  9302   001D90  EFCC  F00E         	goto	u3851
  9303   001D94  EFCE  F00E         	goto	u3850
  9304   001D98                     u3851:
  9305   001D98  EFD6  F00E         	goto	l1438
  9306   001D9C                     u3850:
  9307   001D9C  0E02               	movlw	2
  9308   001D9E  600A               	cpfslt	___xxtofl@exp^0,c
  9309   001DA0  EFD4  F00E         	goto	u3861
  9310   001DA4  EFD6  F00E         	goto	u3860
  9311   001DA8                     u3861:
  9312   001DA8  EFC1  F00E         	goto	l4332
  9313   001DAC                     u3860:
  9314   001DAC                     l1438:
  9315   001DAC  B00A               	btfsc	___xxtofl@exp^0,0,c
  9316   001DAE  EFDB  F00E         	goto	u3871
  9317   001DB2  EFDD  F00E         	goto	u3870
  9318   001DB6                     u3871:
  9319   001DB6  EFDE  F00E         	goto	l4340
  9320   001DBA                     u3870:
  9321   001DBA  9E0D               	bcf	(___xxtofl@arg+2)^0,7,c
  9322   001DBC                     l4340:
  9323   001DBC  90D8               	bcf	status,0,c
  9324   001DBE  320A               	rrcf	___xxtofl@exp^0,f,c
  9325   001DC0  C00A  F005         	movff	___xxtofl@exp,??___xxtofl
  9326   001DC4  6A06               	clrf	(??___xxtofl+1)^0,c
  9327   001DC6  6A07               	clrf	(??___xxtofl+2)^0,c
  9328   001DC8  6A08               	clrf	(??___xxtofl+3)^0,c
  9329   001DCA  C005  F008         	movff	??___xxtofl,??___xxtofl+3
  9330   001DCE  6A07               	clrf	(??___xxtofl+2)^0,c
  9331   001DD0  6A06               	clrf	(??___xxtofl+1)^0,c
  9332   001DD2  6A05               	clrf	??___xxtofl^0,c
  9333   001DD4  5005               	movf	??___xxtofl^0,w,c
  9334   001DD6  120B               	iorwf	___xxtofl@arg^0,f,c
  9335   001DD8  5006               	movf	(??___xxtofl+1)^0,w,c
  9336   001DDA  120C               	iorwf	(___xxtofl@arg+1)^0,f,c
  9337   001DDC  5007               	movf	(??___xxtofl+2)^0,w,c
  9338   001DDE  120D               	iorwf	(___xxtofl@arg+2)^0,f,c
  9339   001DE0  5008               	movf	(??___xxtofl+3)^0,w,c
  9340   001DE2  120E               	iorwf	(___xxtofl@arg+3)^0,f,c
  9341   001DE4  5009               	movf	___xxtofl@sign^0,w,c
  9342   001DE6  B4D8               	btfsc	status,2,c
  9343   001DE8  EFF8  F00E         	goto	u3881
  9344   001DEC  EFFA  F00E         	goto	u3880
  9345   001DF0                     u3881:
  9346   001DF0  EF02  F00F         	goto	l4350
  9347   001DF4                     u3880:
  9348   001DF4  BE04               	btfsc	(___xxtofl@val+3)^0,7,c
  9349   001DF6  EF01  F00F         	goto	u3890
  9350   001DFA  EFFF  F00E         	goto	u3891
  9351   001DFE                     u3891:
  9352   001DFE  EF02  F00F         	goto	l4350
  9353   001E02                     u3890:
  9354   001E02  8E0E               	bsf	(___xxtofl@arg+3)^0,7,c
  9355   001E04                     l4350:
  9356   001E04  C00B  F001         	movff	___xxtofl@arg,?___xxtofl
  9357   001E08  C00C  F002         	movff	___xxtofl@arg+1,?___xxtofl+1
  9358   001E0C  C00D  F003         	movff	___xxtofl@arg+2,?___xxtofl+2
  9359   001E10  C00E  F004         	movff	___xxtofl@arg+3,?___xxtofl+3
  9360   001E14                     l1427:
  9361   001E14  0012               	return		;funcret
  9362   001E16                     __end_of___xxtofl:
  9363                           	callstack 0
  9364                           
  9365 ;; *************** function ___fltol *****************
  9366 ;; Defined at:
  9367 ;;		line 43 in file "C:\Program Files\Microchip\xc8\v2.41\pic\sources\c99\common\fltol.c"
  9368 ;; Parameters:    Size  Location     Type
  9369 ;;  f1              4   39[COMRAM] unsigned char 
  9370 ;; Auto vars:     Size  Location     Type
  9371 ;;  exp1            1   48[COMRAM] unsigned char 
  9372 ;;  sign1           1   47[COMRAM] unsigned char 
  9373 ;; Return value:  Size  Location     Type
  9374 ;;                  4   39[COMRAM] long 
  9375 ;; Registers used:
  9376 ;;		wreg, status,2, status,0
  9377 ;; Tracked objects:
  9378 ;;		On entry : 0/0
  9379 ;;		On exit  : 0/0
  9380 ;;		Unchanged: 0/0
  9381 ;; Data sizes:     COMRAM   BANK0   BANK1   BANK2   BANK3   BANK4   BANK5
  9382 ;;      Params:         4       0       0       0       0       0       0
  9383 ;;      Locals:         2       0       0       0       0       0       0
  9384 ;;      Temps:          4       0       0       0       0       0       0
  9385 ;;      Totals:        10       0       0       0       0       0       0
  9386 ;;Total ram usage:       10 bytes
  9387 ;; Hardware stack levels used: 1
  9388 ;; Hardware stack levels required when called: 1
  9389 ;; This function calls:
  9390 ;;		Nothing
  9391 ;; This function is called by:
  9392 ;;		_display_dashboard
  9393 ;; This function uses a non-reentrant model
  9394 ;;
  9395                           
  9396                           	psect	text50
  9397   00204A                     __ptext50:
  9398                           	callstack 0
  9399   00204A                     ___fltol:
  9400                           	callstack 28
  9401   00204A  342A               	rlcf	(___fltol@f1+2)^0,w,c
  9402   00204C  342B               	rlcf	(___fltol@f1+3)^0,w,c
  9403   00204E  6E31               	movwf	___fltol@exp1^0,c
  9404   002050  5031               	movf	___fltol@exp1^0,w,c
  9405   002052  A4D8               	btfss	status,2,c
  9406   002054  EF2E  F010         	goto	u3731
  9407   002058  EF30  F010         	goto	u3730
  9408   00205C                     u3731:
  9409   00205C  EF3A  F010         	goto	l4270
  9410   002060                     u3730:
  9411   002060                     l4266:
  9412   002060  0E00               	movlw	0
  9413   002062  6E28               	movwf	?___fltol^0,c
  9414   002064  0E00               	movlw	0
  9415   002066  6E29               	movwf	(?___fltol+1)^0,c
  9416   002068  0E00               	movlw	0
  9417   00206A  6E2A               	movwf	(?___fltol+2)^0,c
  9418   00206C  0E00               	movlw	0
  9419   00206E  6E2B               	movwf	(?___fltol+3)^0,c
  9420   002070  EFA7  F010         	goto	l1066
  9421   002074                     l4270:
  9422   002074  C028  F02C         	movff	___fltol@f1,??___fltol
  9423   002078  C029  F02D         	movff	___fltol@f1+1,??___fltol+1
  9424   00207C  C02A  F02E         	movff	___fltol@f1+2,??___fltol+2
  9425   002080  C02B  F02F         	movff	___fltol@f1+3,??___fltol+3
  9426   002084  0E20               	movlw	32
  9427   002086  EF4A  F010         	goto	u3740
  9428   00208A                     u3745:
  9429   00208A  90D8               	bcf	status,0,c
  9430   00208C  322F               	rrcf	(??___fltol+3)^0,f,c
  9431   00208E  322E               	rrcf	(??___fltol+2)^0,f,c
  9432   002090  322D               	rrcf	(??___fltol+1)^0,f,c
  9433   002092  322C               	rrcf	??___fltol^0,f,c
  9434   002094                     u3740:
  9435   002094  2EE8               	decfsz	wreg,f,c
  9436   002096  EF45  F010         	goto	u3745
  9437   00209A  502C               	movf	??___fltol^0,w,c
  9438   00209C  6E30               	movwf	___fltol@sign1^0,c
  9439   00209E  8E2A               	bsf	(___fltol@f1+2)^0,7,c
  9440   0020A0  0EFF               	movlw	255
  9441   0020A2  1628               	andwf	___fltol@f1^0,f,c
  9442   0020A4  0EFF               	movlw	255
  9443   0020A6  1629               	andwf	(___fltol@f1+1)^0,f,c
  9444   0020A8  0EFF               	movlw	255
  9445   0020AA  162A               	andwf	(___fltol@f1+2)^0,f,c
  9446   0020AC  0E00               	movlw	0
  9447   0020AE  162B               	andwf	(___fltol@f1+3)^0,f,c
  9448   0020B0  0E96               	movlw	150
  9449   0020B2  5E31               	subwf	___fltol@exp1^0,f,c
  9450   0020B4  BE31               	btfsc	___fltol@exp1^0,7,c
  9451   0020B6  EF61  F010         	goto	u3750
  9452   0020BA  EF5F  F010         	goto	u3751
  9453   0020BE                     u3751:
  9454   0020BE  EF77  F010         	goto	l4290
  9455   0020C2                     u3750:
  9456   0020C2  5031               	movf	___fltol@exp1^0,w,c
  9457   0020C4  0A80               	xorlw	128
  9458   0020C6  0F97               	addlw	151
  9459   0020C8  B0D8               	btfsc	status,0,c
  9460   0020CA  EF69  F010         	goto	u3761
  9461   0020CE  EF6B  F010         	goto	u3760
  9462   0020D2                     u3761:
  9463   0020D2  EF6D  F010         	goto	l4286
  9464   0020D6                     u3760:
  9465   0020D6  EF30  F010         	goto	l4266
  9466   0020DA                     l4286:
  9467   0020DA  90D8               	bcf	status,0,c
  9468   0020DC  322B               	rrcf	(___fltol@f1+3)^0,f,c
  9469   0020DE  322A               	rrcf	(___fltol@f1+2)^0,f,c
  9470   0020E0  3229               	rrcf	(___fltol@f1+1)^0,f,c
  9471   0020E2  3228               	rrcf	___fltol@f1^0,f,c
  9472   0020E4  3E31               	incfsz	___fltol@exp1^0,f,c
  9473   0020E6  EF6D  F010         	goto	l4286
  9474   0020EA  EF8F  F010         	goto	l4300
  9475   0020EE                     l4290:
  9476   0020EE  0E1F               	movlw	31
  9477   0020F0  6431               	cpfsgt	___fltol@exp1^0,c
  9478   0020F2  EF7D  F010         	goto	u3771
  9479   0020F6  EF7F  F010         	goto	u3770
  9480   0020FA                     u3771:
  9481   0020FA  EF87  F010         	goto	l4298
  9482   0020FE                     u3770:
  9483   0020FE  EF30  F010         	goto	l4266
  9484   002102                     l4296:
  9485   002102  90D8               	bcf	status,0,c
  9486   002104  3628               	rlcf	___fltol@f1^0,f,c
  9487   002106  3629               	rlcf	(___fltol@f1+1)^0,f,c
  9488   002108  362A               	rlcf	(___fltol@f1+2)^0,f,c
  9489   00210A  362B               	rlcf	(___fltol@f1+3)^0,f,c
  9490   00210C  0631               	decf	___fltol@exp1^0,f,c
  9491   00210E                     l4298:
  9492   00210E  5031               	movf	___fltol@exp1^0,w,c
  9493   002110  A4D8               	btfss	status,2,c
  9494   002112  EF8D  F010         	goto	u3781
  9495   002116  EF8F  F010         	goto	u3780
  9496   00211A                     u3781:
  9497   00211A  EF81  F010         	goto	l4296
  9498   00211E                     u3780:
  9499   00211E                     l4300:
  9500   00211E  5030               	movf	___fltol@sign1^0,w,c
  9501   002120  B4D8               	btfsc	status,2,c
  9502   002122  EF95  F010         	goto	u3791
  9503   002126  EF97  F010         	goto	u3790
  9504   00212A                     u3791:
  9505   00212A  EF9F  F010         	goto	l4304
  9506   00212E                     u3790:
  9507   00212E  1E2B               	comf	(___fltol@f1+3)^0,f,c
  9508   002130  1E2A               	comf	(___fltol@f1+2)^0,f,c
  9509   002132  1E29               	comf	(___fltol@f1+1)^0,f,c
  9510   002134  6C28               	negf	___fltol@f1^0,c
  9511   002136  0E00               	movlw	0
  9512   002138  2229               	addwfc	(___fltol@f1+1)^0,f,c
  9513   00213A  222A               	addwfc	(___fltol@f1+2)^0,f,c
  9514   00213C  222B               	addwfc	(___fltol@f1+3)^0,f,c
  9515   00213E                     l4304:
  9516   00213E  C028  F028         	movff	___fltol@f1,?___fltol
  9517   002142  C029  F029         	movff	___fltol@f1+1,?___fltol+1
  9518   002146  C02A  F02A         	movff	___fltol@f1+2,?___fltol+2
  9519   00214A  C02B  F02B         	movff	___fltol@f1+3,?___fltol+3
  9520   00214E                     l1066:
  9521   00214E  0012               	return		;funcret
  9522   002150                     __end_of___fltol:
  9523                           	callstack 0
  9524                           
  9525 ;; *************** function ___fldiv *****************
  9526 ;; Defined at:
  9527 ;;		line 11 in file "C:\Program Files\Microchip\xc8\v2.41\pic\sources\c99\common\sprcdiv.c"
  9528 ;; Parameters:    Size  Location     Type
  9529 ;;  b               4   14[COMRAM] long 
  9530 ;;  a               4   18[COMRAM] long 
  9531 ;; Auto vars:     Size  Location     Type
  9532 ;;  grs             4   33[COMRAM] unsigned long 
  9533 ;;  rem             4   26[COMRAM] unsigned long 
  9534 ;;  new_exp         2   31[COMRAM] short 
  9535 ;;  aexp            1   38[COMRAM] unsigned char 
  9536 ;;  bexp            1   37[COMRAM] unsigned char 
  9537 ;;  sign            1   30[COMRAM] unsigned char 
  9538 ;; Return value:  Size  Location     Type
  9539 ;;                  4   14[COMRAM] unsigned char 
  9540 ;; Registers used:
  9541 ;;		wreg, status,2, status,0
  9542 ;; Tracked objects:
  9543 ;;		On entry : 0/0
  9544 ;;		On exit  : 0/0
  9545 ;;		Unchanged: 0/0
  9546 ;; Data sizes:     COMRAM   BANK0   BANK1   BANK2   BANK3   BANK4   BANK5
  9547 ;;      Params:         8       0       0       0       0       0       0
  9548 ;;      Locals:        13       0       0       0       0       0       0
  9549 ;;      Temps:          4       0       0       0       0       0       0
  9550 ;;      Totals:        25       0       0       0       0       0       0
  9551 ;;Total ram usage:       25 bytes
  9552 ;; Hardware stack levels used: 1
  9553 ;; Hardware stack levels required when called: 1
  9554 ;; This function calls:
  9555 ;;		Nothing
  9556 ;; This function is called by:
  9557 ;;		_display_dashboard
  9558 ;; This function uses a non-reentrant model
  9559 ;;
  9560                           
  9561                           	psect	text51
  9562   000E5E                     __ptext51:
  9563                           	callstack 0
  9564   000E5E                     ___fldiv:
  9565                           	callstack 28
  9566   000E5E  5012               	movf	(___fldiv@b+3)^0,w,c
  9567   000E60  0B80               	andlw	128
  9568   000E62  6E1F               	movwf	___fldiv@sign^0,c
  9569   000E64  5012               	movf	(___fldiv@b+3)^0,w,c
  9570   000E66  2412               	addwf	(___fldiv@b+3)^0,w,c
  9571   000E68  6E26               	movwf	___fldiv@bexp^0,c
  9572   000E6A  AE11               	btfss	(___fldiv@b+2)^0,7,c
  9573   000E6C  EF3A  F007         	goto	u3501
  9574   000E70  EF3C  F007         	goto	u3500
  9575   000E74                     u3501:
  9576   000E74  EF3D  F007         	goto	l4132
  9577   000E78                     u3500:
  9578   000E78  8026               	bsf	___fldiv@bexp^0,0,c
  9579   000E7A                     l4132:
  9580   000E7A  5026               	movf	___fldiv@bexp^0,w,c
  9581   000E7C  B4D8               	btfsc	status,2,c
  9582   000E7E  EF43  F007         	goto	u3511
  9583   000E82  EF45  F007         	goto	u3510
  9584   000E86                     u3511:
  9585   000E86  EF5A  F007         	goto	l4142
  9586   000E8A                     u3510:
  9587   000E8A  2826               	incf	___fldiv@bexp^0,w,c
  9588   000E8C  A4D8               	btfss	status,2,c
  9589   000E8E  EF4B  F007         	goto	u3521
  9590   000E92  EF4D  F007         	goto	u3520
  9591   000E96                     u3521:
  9592   000E96  EF55  F007         	goto	l4138
  9593   000E9A                     u3520:
  9594   000E9A  0E00               	movlw	0
  9595   000E9C  6E0F               	movwf	___fldiv@b^0,c
  9596   000E9E  0E00               	movlw	0
  9597   000EA0  6E10               	movwf	(___fldiv@b+1)^0,c
  9598   000EA2  0E00               	movlw	0
  9599   000EA4  6E11               	movwf	(___fldiv@b+2)^0,c
  9600   000EA6  0E00               	movlw	0
  9601   000EA8  6E12               	movwf	(___fldiv@b+3)^0,c
  9602   000EAA                     l4138:
  9603   000EAA  8E11               	bsf	(___fldiv@b+2)^0,7,c
  9604   000EAC  0E00               	movlw	0
  9605   000EAE  6E12               	movwf	(___fldiv@b+3)^0,c
  9606   000EB0  EF62  F007         	goto	l4144
  9607   000EB4                     l4142:
  9608   000EB4  0E00               	movlw	0
  9609   000EB6  6E0F               	movwf	___fldiv@b^0,c
  9610   000EB8  0E00               	movlw	0
  9611   000EBA  6E10               	movwf	(___fldiv@b+1)^0,c
  9612   000EBC  0E00               	movlw	0
  9613   000EBE  6E11               	movwf	(___fldiv@b+2)^0,c
  9614   000EC0  0E00               	movlw	0
  9615   000EC2  6E12               	movwf	(___fldiv@b+3)^0,c
  9616   000EC4                     l4144:
  9617   000EC4  5016               	movf	(___fldiv@a+3)^0,w,c
  9618   000EC6  0B80               	andlw	128
  9619   000EC8  1A1F               	xorwf	___fldiv@sign^0,f,c
  9620   000ECA  5016               	movf	(___fldiv@a+3)^0,w,c
  9621   000ECC  2416               	addwf	(___fldiv@a+3)^0,w,c
  9622   000ECE  6E27               	movwf	___fldiv@aexp^0,c
  9623   000ED0  AE15               	btfss	(___fldiv@a+2)^0,7,c
  9624   000ED2  EF6D  F007         	goto	u3531
  9625   000ED6  EF6F  F007         	goto	u3530
  9626   000EDA                     u3531:
  9627   000EDA  EF70  F007         	goto	l4152
  9628   000EDE                     u3530:
  9629   000EDE  8027               	bsf	___fldiv@aexp^0,0,c
  9630   000EE0                     l4152:
  9631   000EE0  5027               	movf	___fldiv@aexp^0,w,c
  9632   000EE2  B4D8               	btfsc	status,2,c
  9633   000EE4  EF76  F007         	goto	u3541
  9634   000EE8  EF78  F007         	goto	u3540
  9635   000EEC                     u3541:
  9636   000EEC  EF8D  F007         	goto	l4162
  9637   000EF0                     u3540:
  9638   000EF0  2827               	incf	___fldiv@aexp^0,w,c
  9639   000EF2  A4D8               	btfss	status,2,c
  9640   000EF4  EF7E  F007         	goto	u3551
  9641   000EF8  EF80  F007         	goto	u3550
  9642   000EFC                     u3551:
  9643   000EFC  EF88  F007         	goto	l4158
  9644   000F00                     u3550:
  9645   000F00  0E00               	movlw	0
  9646   000F02  6E13               	movwf	___fldiv@a^0,c
  9647   000F04  0E00               	movlw	0
  9648   000F06  6E14               	movwf	(___fldiv@a+1)^0,c
  9649   000F08  0E00               	movlw	0
  9650   000F0A  6E15               	movwf	(___fldiv@a+2)^0,c
  9651   000F0C  0E00               	movlw	0
  9652   000F0E  6E16               	movwf	(___fldiv@a+3)^0,c
  9653   000F10                     l4158:
  9654   000F10  8E15               	bsf	(___fldiv@a+2)^0,7,c
  9655   000F12  0E00               	movlw	0
  9656   000F14  6E16               	movwf	(___fldiv@a+3)^0,c
  9657   000F16  EF95  F007         	goto	l4164
  9658   000F1A                     l4162:
  9659   000F1A  0E00               	movlw	0
  9660   000F1C  6E13               	movwf	___fldiv@a^0,c
  9661   000F1E  0E00               	movlw	0
  9662   000F20  6E14               	movwf	(___fldiv@a+1)^0,c
  9663   000F22  0E00               	movlw	0
  9664   000F24  6E15               	movwf	(___fldiv@a+2)^0,c
  9665   000F26  0E00               	movlw	0
  9666   000F28  6E16               	movwf	(___fldiv@a+3)^0,c
  9667   000F2A                     l4164:
  9668   000F2A  5013               	movf	___fldiv@a^0,w,c
  9669   000F2C  1014               	iorwf	(___fldiv@a+1)^0,w,c
  9670   000F2E  1015               	iorwf	(___fldiv@a+2)^0,w,c
  9671   000F30  1016               	iorwf	(___fldiv@a+3)^0,w,c
  9672   000F32  A4D8               	btfss	status,2,c
  9673   000F34  EF9E  F007         	goto	u3561
  9674   000F38  EFA0  F007         	goto	u3560
  9675   000F3C                     u3561:
  9676   000F3C  EFB8  F007         	goto	l4176
  9677   000F40                     u3560:
  9678   000F40  0E00               	movlw	0
  9679   000F42  6E0F               	movwf	___fldiv@b^0,c
  9680   000F44  0E00               	movlw	0
  9681   000F46  6E10               	movwf	(___fldiv@b+1)^0,c
  9682   000F48  0E00               	movlw	0
  9683   000F4A  6E11               	movwf	(___fldiv@b+2)^0,c
  9684   000F4C  0E00               	movlw	0
  9685   000F4E  6E12               	movwf	(___fldiv@b+3)^0,c
  9686   000F50  0E80               	movlw	128
  9687   000F52  1211               	iorwf	(___fldiv@b+2)^0,f,c
  9688   000F54  0E7F               	movlw	127
  9689   000F56  1212               	iorwf	(___fldiv@b+3)^0,f,c
  9690   000F58                     l4170:
  9691   000F58  501F               	movf	___fldiv@sign^0,w,c
  9692   000F5A  1212               	iorwf	(___fldiv@b+3)^0,f,c
  9693   000F5C  C00F  F00F         	movff	___fldiv@b,?___fldiv
  9694   000F60  C010  F010         	movff	___fldiv@b+1,?___fldiv+1
  9695   000F64  C011  F011         	movff	___fldiv@b+2,?___fldiv+2
  9696   000F68  C012  F012         	movff	___fldiv@b+3,?___fldiv+3
  9697   000F6C  EFFB  F008         	goto	l1351
  9698   000F70                     l4176:
  9699   000F70  5026               	movf	___fldiv@bexp^0,w,c
  9700   000F72  A4D8               	btfss	status,2,c
  9701   000F74  EFBE  F007         	goto	u3571
  9702   000F78  EFC0  F007         	goto	u3570
  9703   000F7C                     u3571:
  9704   000F7C  EFCA  F007         	goto	l4184
  9705   000F80                     u3570:
  9706   000F80  0E00               	movlw	0
  9707   000F82  6E0F               	movwf	?___fldiv^0,c
  9708   000F84  0E00               	movlw	0
  9709   000F86  6E10               	movwf	(?___fldiv+1)^0,c
  9710   000F88  0E00               	movlw	0
  9711   000F8A  6E11               	movwf	(?___fldiv+2)^0,c
  9712   000F8C  0E00               	movlw	0
  9713   000F8E  6E12               	movwf	(?___fldiv+3)^0,c
  9714   000F90  EFFB  F008         	goto	l1351
  9715   000F94                     l4184:
  9716   000F94  5027               	movf	___fldiv@aexp^0,w,c
  9717   000F96  C026  F017         	movff	___fldiv@bexp,??___fldiv
  9718   000F9A  6A18               	clrf	(??___fldiv+1)^0,c
  9719   000F9C  5E17               	subwf	??___fldiv^0,f,c
  9720   000F9E  0E00               	movlw	0
  9721   000FA0  5A18               	subwfb	(??___fldiv+1)^0,f,c
  9722   000FA2  0E7F               	movlw	127
  9723   000FA4  2417               	addwf	??___fldiv^0,w,c
  9724   000FA6  6E20               	movwf	___fldiv@new_exp^0,c
  9725   000FA8  0E00               	movlw	0
  9726   000FAA  2018               	addwfc	(??___fldiv+1)^0,w,c
  9727   000FAC  6E21               	movwf	(___fldiv@new_exp+1)^0,c
  9728   000FAE  C00F  F01B         	movff	___fldiv@b,___fldiv@rem
  9729   000FB2  C010  F01C         	movff	___fldiv@b+1,___fldiv@rem+1
  9730   000FB6  C011  F01D         	movff	___fldiv@b+2,___fldiv@rem+2
  9731   000FBA  C012  F01E         	movff	___fldiv@b+3,___fldiv@rem+3
  9732   000FBE  0E00               	movlw	0
  9733   000FC0  6E0F               	movwf	___fldiv@b^0,c
  9734   000FC2  0E00               	movlw	0
  9735   000FC4  6E10               	movwf	(___fldiv@b+1)^0,c
  9736   000FC6  0E00               	movlw	0
  9737   000FC8  6E11               	movwf	(___fldiv@b+2)^0,c
  9738   000FCA  0E00               	movlw	0
  9739   000FCC  6E12               	movwf	(___fldiv@b+3)^0,c
  9740   000FCE  0E00               	movlw	0
  9741   000FD0  6E22               	movwf	___fldiv@grs^0,c
  9742   000FD2  0E00               	movlw	0
  9743   000FD4  6E23               	movwf	(___fldiv@grs+1)^0,c
  9744   000FD6  0E00               	movlw	0
  9745   000FD8  6E24               	movwf	(___fldiv@grs+2)^0,c
  9746   000FDA  0E00               	movlw	0
  9747   000FDC  6E25               	movwf	(___fldiv@grs+3)^0,c
  9748   000FDE  0E00               	movlw	0
  9749   000FE0  6E27               	movwf	___fldiv@aexp^0,c
  9750   000FE2  EF2B  F008         	goto	l1353
  9751   000FE6                     l4194:
  9752   000FE6  5027               	movf	___fldiv@aexp^0,w,c
  9753   000FE8  B4D8               	btfsc	status,2,c
  9754   000FEA  EFF9  F007         	goto	u3581
  9755   000FEE  EFFB  F007         	goto	u3580
  9756   000FF2                     u3581:
  9757   000FF2  EF12  F008         	goto	l4202
  9758   000FF6                     u3580:
  9759   000FF6  90D8               	bcf	status,0,c
  9760   000FF8  361B               	rlcf	___fldiv@rem^0,f,c
  9761   000FFA  361C               	rlcf	(___fldiv@rem+1)^0,f,c
  9762   000FFC  361D               	rlcf	(___fldiv@rem+2)^0,f,c
  9763   000FFE  361E               	rlcf	(___fldiv@rem+3)^0,f,c
  9764   001000  90D8               	bcf	status,0,c
  9765   001002  360F               	rlcf	___fldiv@b^0,f,c
  9766   001004  3610               	rlcf	(___fldiv@b+1)^0,f,c
  9767   001006  3611               	rlcf	(___fldiv@b+2)^0,f,c
  9768   001008  3612               	rlcf	(___fldiv@b+3)^0,f,c
  9769   00100A  AE25               	btfss	(___fldiv@grs+3)^0,7,c
  9770   00100C  EF0A  F008         	goto	u3591
  9771   001010  EF0C  F008         	goto	u3590
  9772   001014                     u3591:
  9773   001014  EF0D  F008         	goto	l1356
  9774   001018                     u3590:
  9775   001018  800F               	bsf	___fldiv@b^0,0,c
  9776   00101A                     l1356:
  9777   00101A  90D8               	bcf	status,0,c
  9778   00101C  3622               	rlcf	___fldiv@grs^0,f,c
  9779   00101E  3623               	rlcf	(___fldiv@grs+1)^0,f,c
  9780   001020  3624               	rlcf	(___fldiv@grs+2)^0,f,c
  9781   001022  3625               	rlcf	(___fldiv@grs+3)^0,f,c
  9782   001024                     l4202:
  9783   001024  5013               	movf	___fldiv@a^0,w,c
  9784   001026  5C1B               	subwf	___fldiv@rem^0,w,c
  9785   001028  5014               	movf	(___fldiv@a+1)^0,w,c
  9786   00102A  581C               	subwfb	(___fldiv@rem+1)^0,w,c
  9787   00102C  5015               	movf	(___fldiv@a+2)^0,w,c
  9788   00102E  581D               	subwfb	(___fldiv@rem+2)^0,w,c
  9789   001030  5016               	movf	(___fldiv@a+3)^0,w,c
  9790   001032  581E               	subwfb	(___fldiv@rem+3)^0,w,c
  9791   001034  A0D8               	btfss	status,0,c
  9792   001036  EF1F  F008         	goto	u3601
  9793   00103A  EF21  F008         	goto	u3600
  9794   00103E                     u3601:
  9795   00103E  EF2A  F008         	goto	l4208
  9796   001042                     u3600:
  9797   001042  8C25               	bsf	(___fldiv@grs+3)^0,6,c
  9798   001044  5013               	movf	___fldiv@a^0,w,c
  9799   001046  5E1B               	subwf	___fldiv@rem^0,f,c
  9800   001048  5014               	movf	(___fldiv@a+1)^0,w,c
  9801   00104A  5A1C               	subwfb	(___fldiv@rem+1)^0,f,c
  9802   00104C  5015               	movf	(___fldiv@a+2)^0,w,c
  9803   00104E  5A1D               	subwfb	(___fldiv@rem+2)^0,f,c
  9804   001050  5016               	movf	(___fldiv@a+3)^0,w,c
  9805   001052  5A1E               	subwfb	(___fldiv@rem+3)^0,f,c
  9806   001054                     l4208:
  9807   001054  2A27               	incf	___fldiv@aexp^0,f,c
  9808   001056                     l1353:
  9809   001056  0E19               	movlw	25
  9810   001058  6427               	cpfsgt	___fldiv@aexp^0,c
  9811   00105A  EF31  F008         	goto	u3611
  9812   00105E  EF33  F008         	goto	u3610
  9813   001062                     u3611:
  9814   001062  EFF3  F007         	goto	l4194
  9815   001066                     u3610:
  9816   001066  501B               	movf	___fldiv@rem^0,w,c
  9817   001068  101C               	iorwf	(___fldiv@rem+1)^0,w,c
  9818   00106A  101D               	iorwf	(___fldiv@rem+2)^0,w,c
  9819   00106C  101E               	iorwf	(___fldiv@rem+3)^0,w,c
  9820   00106E  B4D8               	btfsc	status,2,c
  9821   001070  EF3C  F008         	goto	u3621
  9822   001074  EF3E  F008         	goto	u3620
  9823   001078                     u3621:
  9824   001078  EF56  F008         	goto	l4220
  9825   00107C                     u3620:
  9826   00107C  8022               	bsf	___fldiv@grs^0,0,c
  9827   00107E  EF56  F008         	goto	l4220
  9828   001082                     l4214:
  9829   001082  90D8               	bcf	status,0,c
  9830   001084  360F               	rlcf	___fldiv@b^0,f,c
  9831   001086  3610               	rlcf	(___fldiv@b+1)^0,f,c
  9832   001088  3611               	rlcf	(___fldiv@b+2)^0,f,c
  9833   00108A  3612               	rlcf	(___fldiv@b+3)^0,f,c
  9834   00108C  AE25               	btfss	(___fldiv@grs+3)^0,7,c
  9835   00108E  EF4B  F008         	goto	u3631
  9836   001092  EF4D  F008         	goto	u3630
  9837   001096                     u3631:
  9838   001096  EF4E  F008         	goto	l1362
  9839   00109A                     u3630:
  9840   00109A  800F               	bsf	___fldiv@b^0,0,c
  9841   00109C                     l1362:
  9842   00109C  90D8               	bcf	status,0,c
  9843   00109E  3622               	rlcf	___fldiv@grs^0,f,c
  9844   0010A0  3623               	rlcf	(___fldiv@grs+1)^0,f,c
  9845   0010A2  3624               	rlcf	(___fldiv@grs+2)^0,f,c
  9846   0010A4  3625               	rlcf	(___fldiv@grs+3)^0,f,c
  9847   0010A6  0620               	decf	___fldiv@new_exp^0,f,c
  9848   0010A8  A0D8               	btfss	status,0,c
  9849   0010AA  0621               	decf	(___fldiv@new_exp+1)^0,f,c
  9850   0010AC                     l4220:
  9851   0010AC  AE11               	btfss	(___fldiv@b+2)^0,7,c
  9852   0010AE  EF5B  F008         	goto	u3641
  9853   0010B2  EF5D  F008         	goto	u3640
  9854   0010B6                     u3641:
  9855   0010B6  EF41  F008         	goto	l4214
  9856   0010BA                     u3640:
  9857   0010BA  0E00               	movlw	0
  9858   0010BC  6E27               	movwf	___fldiv@aexp^0,c
  9859   0010BE  AE25               	btfss	(___fldiv@grs+3)^0,7,c
  9860   0010C0  EF64  F008         	goto	u3651
  9861   0010C4  EF66  F008         	goto	u3650
  9862   0010C8                     u3651:
  9863   0010C8  EF8A  F008         	goto	l1364
  9864   0010CC                     u3650:
  9865   0010CC  0EFF               	movlw	255
  9866   0010CE  1422               	andwf	___fldiv@grs^0,w,c
  9867   0010D0  6E17               	movwf	??___fldiv^0,c
  9868   0010D2  0EFF               	movlw	255
  9869   0010D4  1423               	andwf	(___fldiv@grs+1)^0,w,c
  9870   0010D6  6E18               	movwf	(??___fldiv+1)^0,c
  9871   0010D8  0EFF               	movlw	255
  9872   0010DA  1424               	andwf	(___fldiv@grs+2)^0,w,c
  9873   0010DC  6E19               	movwf	(??___fldiv+2)^0,c
  9874   0010DE  0E7F               	movlw	127
  9875   0010E0  1425               	andwf	(___fldiv@grs+3)^0,w,c
  9876   0010E2  6E1A               	movwf	(??___fldiv+3)^0,c
  9877   0010E4  5017               	movf	??___fldiv^0,w,c
  9878   0010E6  1018               	iorwf	(??___fldiv+1)^0,w,c
  9879   0010E8  1019               	iorwf	(??___fldiv+2)^0,w,c
  9880   0010EA  101A               	iorwf	(??___fldiv+3)^0,w,c
  9881   0010EC  B4D8               	btfsc	status,2,c
  9882   0010EE  EF7B  F008         	goto	u3661
  9883   0010F2  EF7D  F008         	goto	u3660
  9884   0010F6                     u3661:
  9885   0010F6  EF81  F008         	goto	l1365
  9886   0010FA                     u3660:
  9887   0010FA                     l4228:
  9888   0010FA  0E01               	movlw	1
  9889   0010FC  6E27               	movwf	___fldiv@aexp^0,c
  9890   0010FE  EF8A  F008         	goto	l1364
  9891   001102                     l1365:
  9892   001102  A00F               	btfss	___fldiv@b^0,0,c
  9893   001104  EF86  F008         	goto	u3671
  9894   001108  EF88  F008         	goto	u3670
  9895   00110C                     u3671:
  9896   00110C  EF8A  F008         	goto	l1364
  9897   001110                     u3670:
  9898   001110  EF7D  F008         	goto	l4228
  9899   001114                     l1364:
  9900   001114  5027               	movf	___fldiv@aexp^0,w,c
  9901   001116  B4D8               	btfsc	status,2,c
  9902   001118  EF90  F008         	goto	u3681
  9903   00111C  EF92  F008         	goto	u3680
  9904   001120                     u3681:
  9905   001120  EFB6  F008         	goto	l4240
  9906   001124                     u3680:
  9907   001124  0E01               	movlw	1
  9908   001126  260F               	addwf	___fldiv@b^0,f,c
  9909   001128  0E00               	movlw	0
  9910   00112A  2210               	addwfc	(___fldiv@b+1)^0,f,c
  9911   00112C  2211               	addwfc	(___fldiv@b+2)^0,f,c
  9912   00112E  2212               	addwfc	(___fldiv@b+3)^0,f,c
  9913   001130  A012               	btfss	(___fldiv@b+3)^0,0,c
  9914   001132  EF9D  F008         	goto	u3691
  9915   001136  EF9F  F008         	goto	u3690
  9916   00113A                     u3691:
  9917   00113A  EFB6  F008         	goto	l4240
  9918   00113E                     u3690:
  9919   00113E  C00F  F017         	movff	___fldiv@b,??___fldiv
  9920   001142  C010  F018         	movff	___fldiv@b+1,??___fldiv+1
  9921   001146  C011  F019         	movff	___fldiv@b+2,??___fldiv+2
  9922   00114A  C012  F01A         	movff	___fldiv@b+3,??___fldiv+3
  9923   00114E  341A               	rlcf	(??___fldiv+3)^0,w,c
  9924   001150  321A               	rrcf	(??___fldiv+3)^0,f,c
  9925   001152  3219               	rrcf	(??___fldiv+2)^0,f,c
  9926   001154  3218               	rrcf	(??___fldiv+1)^0,f,c
  9927   001156  3217               	rrcf	??___fldiv^0,f,c
  9928   001158  C017  F00F         	movff	??___fldiv,___fldiv@b
  9929   00115C  C018  F010         	movff	??___fldiv+1,___fldiv@b+1
  9930   001160  C019  F011         	movff	??___fldiv+2,___fldiv@b+2
  9931   001164  C01A  F012         	movff	??___fldiv+3,___fldiv@b+3
  9932   001168  4A20               	infsnz	___fldiv@new_exp^0,f,c
  9933   00116A  2A21               	incf	(___fldiv@new_exp+1)^0,f,c
  9934   00116C                     l4240:
  9935   00116C  BE21               	btfsc	(___fldiv@new_exp+1)^0,7,c
  9936   00116E  EFC1  F008         	goto	u3701
  9937   001172  5021               	movf	(___fldiv@new_exp+1)^0,w,c
  9938   001174  E108               	bnz	u3700
  9939   001176  2820               	incf	___fldiv@new_exp^0,w,c
  9940   001178  A0D8               	btfss	status,0,c
  9941   00117A  EFC1  F008         	goto	u3701
  9942   00117E  EFC3  F008         	goto	u3700
  9943   001182                     u3701:
  9944   001182  EFCE  F008         	goto	l4244
  9945   001186                     u3700:
  9946   001186  0E00               	movlw	0
  9947   001188  6E21               	movwf	(___fldiv@new_exp+1)^0,c
  9948   00118A  6820               	setf	___fldiv@new_exp^0,c
  9949   00118C  0E00               	movlw	0
  9950   00118E  6E0F               	movwf	___fldiv@b^0,c
  9951   001190  0E00               	movlw	0
  9952   001192  6E10               	movwf	(___fldiv@b+1)^0,c
  9953   001194  0E00               	movlw	0
  9954   001196  6E11               	movwf	(___fldiv@b+2)^0,c
  9955   001198  0E00               	movlw	0
  9956   00119A  6E12               	movwf	(___fldiv@b+3)^0,c
  9957   00119C                     l4244:
  9958   00119C  BE21               	btfsc	(___fldiv@new_exp+1)^0,7,c
  9959   00119E  EFDB  F008         	goto	u3710
  9960   0011A2  5021               	movf	(___fldiv@new_exp+1)^0,w,c
  9961   0011A4  E106               	bnz	u3711
  9962   0011A6  0420               	decf	___fldiv@new_exp^0,w,c
  9963   0011A8  B0D8               	btfsc	status,0,c
  9964   0011AA  EFD9  F008         	goto	u3711
  9965   0011AE  EFDB  F008         	goto	u3710
  9966   0011B2                     u3711:
  9967   0011B2  EFE9  F008         	goto	l4248
  9968   0011B6                     u3710:
  9969   0011B6  0E00               	movlw	0
  9970   0011B8  6E21               	movwf	(___fldiv@new_exp+1)^0,c
  9971   0011BA  0E00               	movlw	0
  9972   0011BC  6E20               	movwf	___fldiv@new_exp^0,c
  9973   0011BE  0E00               	movlw	0
  9974   0011C0  6E0F               	movwf	___fldiv@b^0,c
  9975   0011C2  0E00               	movlw	0
  9976   0011C4  6E10               	movwf	(___fldiv@b+1)^0,c
  9977   0011C6  0E00               	movlw	0
  9978   0011C8  6E11               	movwf	(___fldiv@b+2)^0,c
  9979   0011CA  0E00               	movlw	0
  9980   0011CC  6E12               	movwf	(___fldiv@b+3)^0,c
  9981   0011CE  0E00               	movlw	0
  9982   0011D0  6E1F               	movwf	___fldiv@sign^0,c
  9983   0011D2                     l4248:
  9984   0011D2  C020  F026         	movff	___fldiv@new_exp,___fldiv@bexp
  9985   0011D6  A026               	btfss	___fldiv@bexp^0,0,c
  9986   0011D8  EFF0  F008         	goto	u3721
  9987   0011DC  EFF2  F008         	goto	u3720
  9988   0011E0                     u3721:
  9989   0011E0  EFF5  F008         	goto	l4254
  9990   0011E4                     u3720:
  9991   0011E4  8E11               	bsf	(___fldiv@b+2)^0,7,c
  9992   0011E6  EFF6  F008         	goto	l4256
  9993   0011EA                     l4254:
  9994   0011EA  9E11               	bcf	(___fldiv@b+2)^0,7,c
  9995   0011EC                     l4256:
  9996   0011EC  90D8               	bcf	status,0,c
  9997   0011EE  3026               	rrcf	___fldiv@bexp^0,w,c
  9998   0011F0  6E12               	movwf	(___fldiv@b+3)^0,c
  9999   0011F2  EFAC  F007         	goto	l4170
 10000   0011F6                     l1351:
 10001   0011F6  0012               	return		;funcret
 10002   0011F8                     __end_of___fldiv:
 10003                           	callstack 0
 10004                           
 10005 ;; *************** function _isr *****************
 10006 ;; Defined at:
 10007 ;;		line 14 in file "isr.c"
 10008 ;; Parameters:    Size  Location     Type
 10009 ;;		None
 10010 ;; Auto vars:     Size  Location     Type
 10011 ;;		None
 10012 ;; Return value:  Size  Location     Type
 10013 ;;                  1    wreg      void 
 10014 ;; Registers used:
 10015 ;;		wreg, status,2, status,0
 10016 ;; Tracked objects:
 10017 ;;		On entry : 0/0
 10018 ;;		On exit  : 0/0
 10019 ;;		Unchanged: 0/0
 10020 ;; Data sizes:     COMRAM   BANK0   BANK1   BANK2   BANK3   BANK4   BANK5
 10021 ;;      Params:         0       0       0       0       0       0       0
 10022 ;;      Locals:         0       0       0       0       0       0       0
 10023 ;;      Temps:          0       0       0       0       0       0       0
 10024 ;;      Totals:         0       0       0       0       0       0       0
 10025 ;;Total ram usage:        0 bytes
 10026 ;; Hardware stack levels used: 1
 10027 ;; This function calls:
 10028 ;;		Nothing
 10029 ;; This function is called by:
 10030 ;;		Interrupt level 2
 10031 ;; This function uses a non-reentrant model
 10032 ;;
 10033                           
 10034                           	psect	intcode
 10035   000008                     __pintcode:
 10036                           	callstack 0
 10037   000008                     _isr:
 10038                           	callstack 21
 10039                           
 10040                           ;incstack = 0
 10041   000008  825A               	bsf	int$flags,1,c	;set compiler interrupt flag (level 2)
 10042   00000A  EDA8  F010         	call	int_func,f	;refresh shadow registers
 10043                           
 10044                           	psect	intcode_body
 10045   002150                     __pintcode_body:
 10046                           	callstack 21
 10047   002150                     int_func:
 10048                           	callstack 21
 10049   002150  0006               	pop		; remove dummy address from shadow register refresh
 10050   002152                     
 10051                           ;isr.c: 17:     if(TMR0IF)
 10052   002152  A4F2               	btfss	4082,2,c	;volatile
 10053   002154  EFAE  F010         	goto	i2u411_41
 10054   002158  EFB0  F010         	goto	i2u411_40
 10055   00215C                     i2u411_41:
 10056   00215C  EF14  F011         	goto	i2l165
 10057   002160                     i2u411_40:
 10058   002160                     
 10059                           ;isr.c: 18:     {;isr.c: 19:         TMR0 = TMR0 + 8;
 10060   002160  0E08               	movlw	8
 10061   002162  24D6               	addwf	214,w,c	;volatile
 10062   002164  6ED6               	movwf	214,c	;volatile
 10063   002166  0E00               	movlw	0
 10064   002168  20D7               	addwfc	215,w,c	;volatile
 10065   00216A  6ED7               	movwf	215,c	;volatile
 10066                           
 10067                           ;isr.c: 22:         if(min_count++ == 625)
 10068   00216C  0100               	movlb	0	; () banked
 10069   00216E  4BC2               	infsnz	_min_count& (0+255),f,b
 10070   002170  2BC3               	incf	(_min_count+1)& (0+255),f,b
 10071   002172  0E72               	movlw	114
 10072   002174  19C2               	xorwf	_min_count& (0+255),w,b
 10073   002176  E107               	bnz	i2u412_41
 10074   002178  0E02               	movlw	2
 10075   00217A  19C3               	xorwf	(_min_count+1)& (0+255),w,b
 10076   00217C  A4D8               	btfss	status,2,c
 10077   00217E  EFC3  F010         	goto	i2u412_41
 10078   002182  EFC5  F010         	goto	i2u412_40
 10079   002186                     i2u412_41:
 10080   002186  EFD4  F010         	goto	i2l4462
 10081   00218A                     i2u412_40:
 10082   00218A                     
 10083                           ; BSR set to: 0
 10084                           ;isr.c: 23:         {;isr.c: 24:             flag_1_sec = !flag_1_sec;
 10085   00218A  5058               	movf	_flag_1_sec^0,w,c
 10086   00218C  B4D8               	btfsc	status,2,c
 10087   00218E  EFCB  F010         	goto	i2u413_41
 10088   002192  EFCE  F010         	goto	i2u413_40
 10089   002196                     i2u413_41:
 10090   002196  0E01               	movlw	1
 10091   002198  EFCF  F010         	goto	i2u414_40
 10092   00219C                     i2u413_40:
 10093   00219C  0E00               	movlw	0
 10094   00219E                     i2u414_40:
 10095   00219E  6E58               	movwf	_flag_1_sec^0,c
 10096                           
 10097                           ;isr.c: 25:             min_count=0;
 10098   0021A0  0E00               	movlw	0
 10099   0021A2  6FC3               	movwf	(_min_count+1)& (0+255),b
 10100   0021A4  0E00               	movlw	0
 10101   0021A6  6FC2               	movwf	_min_count& (0+255),b
 10102   0021A8                     i2l4462:
 10103                           
 10104                           ; BSR set to: 0
 10105                           ;isr.c: 29:         if(count++ == 3125)
 10106   0021A8  0E01               	movlw	1
 10107   0021AA  27B4               	addwf	_count& (0+255),f,b
 10108   0021AC  0E00               	movlw	0
 10109   0021AE  23B5               	addwfc	(_count+1)& (0+255),f,b
 10110   0021B0  23B6               	addwfc	(_count+2)& (0+255),f,b
 10111   0021B2  23B7               	addwfc	(_count+3)& (0+255),f,b
 10112   0021B4  0E36               	movlw	54
 10113   0021B6  19B4               	xorwf	_count& (0+255),w,b
 10114   0021B8  E109               	bnz	i2u415_41
 10115   0021BA  0E0C               	movlw	12
 10116   0021BC  19B5               	xorwf	(_count+1)& (0+255),w,b
 10117   0021BE  11B6               	iorwf	(_count+2)& (0+255),w,b
 10118   0021C0  11B7               	iorwf	(_count+3)& (0+255),w,b
 10119   0021C2  A4D8               	btfss	status,2,c
 10120   0021C4  EFE6  F010         	goto	i2u415_41
 10121   0021C8  EFE8  F010         	goto	i2u415_40
 10122   0021CC                     i2u415_41:
 10123   0021CC  EFEA  F010         	goto	i2l4466
 10124   0021D0                     i2u415_40:
 10125   0021D0                     
 10126                           ; BSR set to: 0
 10127                           ;isr.c: 30:         {;isr.c: 31:             flag_5_sec = 1;
 10128   0021D0  0E01               	movlw	1
 10129   0021D2  6E50               	movwf	_flag_5_sec^0,c
 10130   0021D4                     i2l4466:
 10131                           
 10132                           ; BSR set to: 0
 10133                           ;isr.c: 33:         if(count == 18750)
 10134   0021D4  0E3E               	movlw	62
 10135   0021D6  19B4               	xorwf	_count& (0+255),w,b
 10136   0021D8  E109               	bnz	i2u416_41
 10137   0021DA  0E49               	movlw	73
 10138   0021DC  19B5               	xorwf	(_count+1)& (0+255),w,b
 10139   0021DE  11B6               	iorwf	(_count+2)& (0+255),w,b
 10140   0021E0  11B7               	iorwf	(_count+3)& (0+255),w,b
 10141   0021E2  A4D8               	btfss	status,2,c
 10142   0021E4  EFF6  F010         	goto	i2u416_41
 10143   0021E8  EFF8  F010         	goto	i2u416_40
 10144   0021EC                     i2u416_41:
 10145   0021EC  EFFA  F010         	goto	i2l4470
 10146   0021F0                     i2u416_40:
 10147   0021F0                     
 10148                           ; BSR set to: 0
 10149                           ;isr.c: 34:         {;isr.c: 35:             flag_30_sec = 1;
 10150   0021F0  0E01               	movlw	1
 10151   0021F2  6E4F               	movwf	_flag_30_sec^0,c
 10152   0021F4                     i2l4470:
 10153                           
 10154                           ; BSR set to: 0
 10155                           ;isr.c: 39:         if(count == 75000)
 10156   0021F4  0EF8               	movlw	248
 10157   0021F6  19B4               	xorwf	_count& (0+255),w,b
 10158   0021F8  E10A               	bnz	i2u417_41
 10159   0021FA  0E24               	movlw	36
 10160   0021FC  19B5               	xorwf	(_count+1)& (0+255),w,b
 10161   0021FE  E107               	bnz	i2u417_41
 10162   002200  05B6               	decf	(_count+2)& (0+255),w,b
 10163   002202  11B7               	iorwf	(_count+3)& (0+255),w,b
 10164   002204  A4D8               	btfss	status,2,c
 10165   002206  EF07  F011         	goto	i2u417_41
 10166   00220A  EF09  F011         	goto	i2u417_40
 10167   00220E                     i2u417_41:
 10168   00220E  EF13  F011         	goto	i2l4474
 10169   002212                     i2u417_40:
 10170   002212                     
 10171                           ; BSR set to: 0
 10172                           ;isr.c: 40:         {;isr.c: 41:             flag_2_min = 1;
 10173   002212  0E01               	movlw	1
 10174   002214  6E4E               	movwf	_flag_2_min^0,c
 10175                           
 10176                           ;isr.c: 42:             count = 0;
 10177   002216  0E00               	movlw	0
 10178   002218  6FB4               	movwf	_count& (0+255),b
 10179   00221A  0E00               	movlw	0
 10180   00221C  6FB5               	movwf	(_count+1)& (0+255),b
 10181   00221E  0E00               	movlw	0
 10182   002220  6FB6               	movwf	(_count+2)& (0+255),b
 10183   002222  0E00               	movlw	0
 10184   002224  6FB7               	movwf	(_count+3)& (0+255),b
 10185   002226                     i2l4474:
 10186                           
 10187                           ; BSR set to: 0
 10188                           ;isr.c: 44:         TMR0IF = 0;
 10189   002226  94F2               	bcf	4082,2,c	;volatile
 10190   002228                     i2l165:
 10191   002228  925A               	bcf	int$flags,1,c	;clear compiler interrupt flag (level 2)
 10192   00222A  0011               	retfie		f
 10193   00222C                     __end_of_isr:
 10194                           	callstack 0
 10195                           
 10196                           	psect	rparam
 10197   000000                     
 10198                           	psect	temp
 10199   00005A                     btemp:
 10200                           	callstack 0
 10201   00005A                     	ds	1
 10202   000000                     int$flags	set	btemp
 10203   000000                     wtemp8	set	btemp+1
 10204   000000                     ttemp5	set	btemp+1
 10205   000000                     ttemp6	set	btemp+4
 10206   000000                     ttemp7	set	btemp+8
 10207                           
 10208                           	psect	idloc
 10209                           
 10210                           ;Config register IDLOC0 @ 0x200000
 10211                           ;	unspecified, using default values
 10212   200000                     	org	2097152
 10213   200000  FF                 	db	255
 10214                           
 10215                           ;Config register IDLOC1 @ 0x200001
 10216                           ;	unspecified, using default values
 10217   200001                     	org	2097153
 10218   200001  FF                 	db	255
 10219                           
 10220                           ;Config register IDLOC2 @ 0x200002
 10221                           ;	unspecified, using default values
 10222   200002                     	org	2097154
 10223   200002  FF                 	db	255
 10224                           
 10225                           ;Config register IDLOC3 @ 0x200003
 10226                           ;	unspecified, using default values
 10227   200003                     	org	2097155
 10228   200003  FF                 	db	255
 10229                           
 10230                           ;Config register IDLOC4 @ 0x200004
 10231                           ;	unspecified, using default values
 10232   200004                     	org	2097156
 10233   200004  FF                 	db	255
 10234                           
 10235                           ;Config register IDLOC5 @ 0x200005
 10236                           ;	unspecified, using default values
 10237   200005                     	org	2097157
 10238   200005  FF                 	db	255
 10239                           
 10240                           ;Config register IDLOC6 @ 0x200006
 10241                           ;	unspecified, using default values
 10242   200006                     	org	2097158
 10243   200006  FF                 	db	255
 10244                           
 10245                           ;Config register IDLOC7 @ 0x200007
 10246                           ;	unspecified, using default values
 10247   200007                     	org	2097159
 10248   200007  FF                 	db	255
 10249                           
 10250                           	psect	config
 10251                           
 10252                           ; Padding undefined space
 10253   300000                     	org	3145728
 10254   300000  FF                 	db	255
 10255                           
 10256                           ;Config register CONFIG1H @ 0x300001
 10257                           ;	unspecified, using default values
 10258                           ;	Oscillator Selection bits
 10259                           ;	OSC = 0x7, unprogrammed default
 10260                           ;	Fail-Safe Clock Monitor Enable bit
 10261                           ;	FCMEN = 0x0, unprogrammed default
 10262                           ;	Internal/External Oscillator Switchover bit
 10263                           ;	IESO = 0x0, unprogrammed default
 10264   300001                     	org	3145729
 10265   300001  07                 	db	7
 10266                           
 10267                           ;Config register CONFIG2L @ 0x300002
 10268                           ;	unspecified, using default values
 10269                           ;	Power-up Timer Enable bit
 10270                           ;	PWRT = 0x1, unprogrammed default
 10271                           ;	Brown-out Reset Enable bits
 10272                           ;	BOREN = 0x3, unprogrammed default
 10273                           ;	Brown-out Reset Voltage bits
 10274                           ;	BORV = 0x3, unprogrammed default
 10275   300002                     	org	3145730
 10276   300002  1F                 	db	31
 10277                           
 10278                           ;Config register CONFIG2H @ 0x300003
 10279                           ;	unspecified, using default values
 10280                           ;	Watchdog Timer Enable bit
 10281                           ;	WDT = 0x1, unprogrammed default
 10282                           ;	Watchdog Timer Postscale Select bits
 10283                           ;	WDTPS = 0xF, unprogrammed default
 10284   300003                     	org	3145731
 10285   300003  1F                 	db	31
 10286                           
 10287                           ; Padding undefined space
 10288   300004                     	org	3145732
 10289   300004  FF                 	db	255
 10290                           
 10291                           ;Config register CONFIG3H @ 0x300005
 10292                           ;	unspecified, using default values
 10293                           ;	PORTB A/D Enable bit
 10294                           ;	PBADEN = 0x1, unprogrammed default
 10295                           ;	Low-Power Timer 1 Oscillator Enable bit
 10296                           ;	LPT1OSC = 0x0, unprogrammed default
 10297                           ;	MCLR Pin Enable bit
 10298                           ;	MCLRE = 0x1, unprogrammed default
 10299   300005                     	org	3145733
 10300   300005  82                 	db	130
 10301                           
 10302                           ;Config register CONFIG4L @ 0x300006
 10303                           ;	unspecified, using default values
 10304                           ;	Stack Full/Underflow Reset Enable bit
 10305                           ;	STVREN = 0x1, unprogrammed default
 10306                           ;	Single-Supply ICSP Enable bit
 10307                           ;	LVP = 0x1, unprogrammed default
 10308                           ;	Boot Block Size Select bit
 10309                           ;	BBSIZ = 0x0, unprogrammed default
 10310                           ;	Extended Instruction Set Enable bit
 10311                           ;	XINST = 0x0, unprogrammed default
 10312                           ;	Background Debugger Enable bit
 10313                           ;	DEBUG = 0x1, unprogrammed default
 10314   300006                     	org	3145734
 10315   300006  85                 	db	133
 10316                           
 10317                           ; Padding undefined space
 10318   300007                     	org	3145735
 10319   300007  FF                 	db	255
 10320                           
 10321                           ;Config register CONFIG5L @ 0x300008
 10322                           ;	unspecified, using default values
 10323                           ;	Code Protection bit
 10324                           ;	CP0 = 0x1, unprogrammed default
 10325                           ;	Code Protection bit
 10326                           ;	CP1 = 0x1, unprogrammed default
 10327                           ;	Code Protection bit
 10328                           ;	CP2 = 0x1, unprogrammed default
 10329                           ;	Code Protection bit
 10330                           ;	CP3 = 0x1, unprogrammed default
 10331   300008                     	org	3145736
 10332   300008  0F                 	db	15
 10333                           
 10334                           ;Config register CONFIG5H @ 0x300009
 10335                           ;	unspecified, using default values
 10336                           ;	Boot Block Code Protection bit
 10337                           ;	CPB = 0x1, unprogrammed default
 10338                           ;	Data EEPROM Code Protection bit
 10339                           ;	CPD = 0x1, unprogrammed default
 10340   300009                     	org	3145737
 10341   300009  C0                 	db	192
 10342                           
 10343                           ;Config register CONFIG6L @ 0x30000A
 10344                           ;	unspecified, using default values
 10345                           ;	Write Protection bit
 10346                           ;	WRT0 = 0x1, unprogrammed default
 10347                           ;	Write Protection bit
 10348                           ;	WRT1 = 0x1, unprogrammed default
 10349                           ;	Write Protection bit
 10350                           ;	WRT2 = 0x1, unprogrammed default
 10351                           ;	Write Protection bit
 10352                           ;	WRT3 = 0x1, unprogrammed default
 10353   30000A                     	org	3145738
 10354   30000A  0F                 	db	15
 10355                           
 10356                           ;Config register CONFIG6H @ 0x30000B
 10357                           ;	unspecified, using default values
 10358                           ;	Configuration Register Write Protection bit
 10359                           ;	WRTC = 0x1, unprogrammed default
 10360                           ;	Boot Block Write Protection bit
 10361                           ;	WRTB = 0x1, unprogrammed default
 10362                           ;	Data EEPROM Write Protection bit
 10363                           ;	WRTD = 0x1, unprogrammed default
 10364   30000B                     	org	3145739
 10365   30000B  E0                 	db	224
 10366                           
 10367                           ;Config register CONFIG7L @ 0x30000C
 10368                           ;	unspecified, using default values
 10369                           ;	Table Read Protection bit
 10370                           ;	EBTR0 = 0x1, unprogrammed default
 10371                           ;	Table Read Protection bit
 10372                           ;	EBTR1 = 0x1, unprogrammed default
 10373                           ;	Table Read Protection bit
 10374                           ;	EBTR2 = 0x1, unprogrammed default
 10375                           ;	Table Read Protection bit
 10376                           ;	EBTR3 = 0x1, unprogrammed default
 10377   30000C                     	org	3145740
 10378   30000C  0F                 	db	15
 10379                           
 10380                           ;Config register CONFIG7H @ 0x30000D
 10381                           ;	unspecified, using default values
 10382                           ;	Boot Block Table Read Protection bit
 10383                           ;	EBTRB = 0x1, unprogrammed default
 10384   30000D                     	org	3145741
 10385   30000D  40                 	db	64
 10386                           tosu	equ	0xFFF
 10387                           tosh	equ	0xFFE
 10388                           tosl	equ	0xFFD
 10389                           stkptr	equ	0xFFC
 10390                           pclatu	equ	0xFFB
 10391                           pclath	equ	0xFFA
 10392                           pcl	equ	0xFF9
 10393                           tblptru	equ	0xFF8
 10394                           tblptrh	equ	0xFF7
 10395                           tblptrl	equ	0xFF6
 10396                           tablat	equ	0xFF5
 10397                           prodh	equ	0xFF4
 10398                           prodl	equ	0xFF3
 10399                           indf0	equ	0xFEF
 10400                           postinc0	equ	0xFEE
 10401                           postdec0	equ	0xFED
 10402                           preinc0	equ	0xFEC
 10403                           plusw0	equ	0xFEB
 10404                           fsr0h	equ	0xFEA
 10405                           fsr0l	equ	0xFE9
 10406                           wreg	equ	0xFE8
 10407                           indf1	equ	0xFE7
 10408                           postinc1	equ	0xFE6
 10409                           postdec1	equ	0xFE5
 10410                           preinc1	equ	0xFE4
 10411                           plusw1	equ	0xFE3
 10412                           fsr1h	equ	0xFE2
 10413                           fsr1l	equ	0xFE1
 10414                           bsr	equ	0xFE0
 10415                           indf2	equ	0xFDF
 10416                           postinc2	equ	0xFDE
 10417                           postdec2	equ	0xFDD
 10418                           preinc2	equ	0xFDC
 10419                           plusw2	equ	0xFDB
 10420                           fsr2h	equ	0xFDA
 10421                           fsr2l	equ	0xFD9
 10422                           status	equ	0xFD8

Data Sizes:
    Strings     464
    Constant    0
    Data        83
    BSS         74
    Persistent  0
    Stack       0

Auto Spaces:
    Space          Size  Autos    Used
    COMRAM           94     52      89
    BANK0           160      0     120
    BANK1           256      0       0
    BANK2           256      0       0
    BANK3           256      0       0
    BANK4           256      0       0
    BANK5           256      0       0

Pointer List with Targets:

    strcpy@dest	PTR unsigned char  size(2) Largest target is 6
		 -> change_password@chng_psw_temp_star(BANK0[6]), change_password@chng_psw_star(BANK0[6]), psw_star(BANK0[6]), 

    strcpy@d	PTR unsigned char  size(2) Largest target is 6
		 -> change_password@chng_psw_temp_star(BANK0[6]), change_password@chng_psw_star(BANK0[6]), psw_star(BANK0[6]), 

    strcpy@src	PTR const unsigned char  size(2) Largest target is 5
		 -> STR_44(CODE[5]), STR_43(CODE[5]), STR_42(CODE[5]), STR_39(CODE[5]), 
		 -> STR_36(CODE[5]), STR_35(CODE[5]), STR_34(CODE[5]), STR_31(CODE[5]), 
		 -> STR_8(CODE[5]), STR_2(CODE[5]), STR_1(CODE[5]), 

    strcpy@s	PTR const unsigned char  size(2) Largest target is 5
		 -> STR_44(CODE[5]), STR_43(CODE[5]), STR_42(CODE[5]), STR_39(CODE[5]), 
		 -> STR_36(CODE[5]), STR_35(CODE[5]), STR_34(CODE[5]), STR_31(CODE[5]), 
		 -> STR_8(CODE[5]), STR_2(CODE[5]), STR_1(CODE[5]), 

    strcmp@r	PTR const unsigned char  size(2) Largest target is 5
		 -> change_password@chng_psw_temp(BANK0[5]), psw_temp(BANK0[5]), 

    strcmp@l	PTR const unsigned char  size(2) Largest target is 5
		 -> change_password@chng_psw(BANK0[5]), psw_arr(BANK0[5]), 

    puts@s	PTR const unsigned char  size(2) Largest target is 16
		 -> STR_27(CODE[3]), get_data@dwn_data(COMRAM[16]), STR_26(CODE[3]), STR_25(CODE[15]), 
		 -> STR_24(CODE[3]), STR_23(CODE[10]), 

    display_event@event	PTR unsigned char  size(2) Largest target is 3
		 -> STR_56(CODE[3]), STR_55(CODE[3]), STR_54(CODE[3]), STR_53(CODE[3]), 
		 -> STR_52(CODE[3]), STR_51(CODE[3]), STR_50(CODE[3]), STR_49(CODE[3]), 

    event	PTR unsigned char [8] size(2) Largest target is 3
		 -> STR_56(CODE[3]), STR_55(CODE[3]), STR_54(CODE[3]), STR_53(CODE[3]), 
		 -> STR_52(CODE[3]), STR_51(CODE[3]), STR_50(CODE[3]), STR_49(CODE[3]), 

    display_list@menu_name	PTR PTR unsigned char  size(2) Largest target is 10
		 -> menu_name(BANK0[10]), 

    menu_name	PTR unsigned char [5] size(2) Largest target is 16
		 -> STR_15(CODE[16]), STR_14(CODE[16]), STR_13(CODE[16]), STR_12(CODE[16]), 
		 -> STR_11(CODE[16]), 

    read_password@psw_arr	PTR unsigned char  size(2) Largest target is 5
		 -> psw_arr(BANK0[5]), 

    sp__strcpy	PTR unsigned char  size(2) Largest target is 6
		 -> change_password@chng_psw_temp_star(BANK0[6]), change_password@chng_psw_star(BANK0[6]), psw_star(BANK0[6]), 

    clcd_print@data	PTR const unsigned char  size(2) Largest target is 17
		 -> STR_57(CODE[17]), STR_56(CODE[3]), STR_55(CODE[3]), STR_54(CODE[3]), 
		 -> STR_53(CODE[3]), STR_52(CODE[3]), STR_51(CODE[3]), STR_50(CODE[3]), 
		 -> STR_49(CODE[3]), STR_48(CODE[13]), STR_47(CODE[17]), STR_46(CODE[13]), 
		 -> STR_45(CODE[17]), STR_41(CODE[17]), STR_40(CODE[17]), STR_38(CODE[17]), 
		 -> STR_37(CODE[17]), change_password@chng_psw_temp_star(BANK0[6]), change_password@chng_psw_star(BANK0[6]), STR_33(CODE[17]), 
		 -> STR_32(CODE[17]), time(BANK0[10]), STR_30(CODE[5]), STR_29(CODE[5]), 
		 -> STR_28(CODE[17]), STR_22(CODE[17]), STR_21(CODE[17]), STR_20(CODE[17]), 
		 -> STR_19(CODE[17]), STR_18(CODE[17]), STR_17(CODE[17]), STR_16(CODE[16]), 
		 -> STR_15(CODE[16]), STR_14(CODE[16]), STR_13(CODE[16]), STR_12(CODE[16]), 
		 -> STR_11(CODE[16]), STR_10(CODE[13]), STR_9(CODE[17]), STR_7(CODE[5]), 
		 -> STR_6(CODE[10]), STR_5(CODE[17]), STR_4(CODE[16]), STR_3(CODE[17]), 
		 -> psw_star(BANK0[6]), 


Critical Paths under _main in COMRAM

    _main->_display_dashboard
    _init_config->_init_ds1307
    _init_ds1307->_read_ds1307
    _init_ds1307->_write_ds1307
    _init_clcd->_clcd_write
    _display_dashboard->___fltol
    _store_eeprom->_write_external_eeprom
    _login_BB->_display_menu
    _read_password->_read_external_eeprom
    _view_log->_clcd_putch
    _set_time->_clcd_putch
    _write_ds1307->_i2c_write
    _download_log->_get_data
    _get_data->___awdiv
    _read_external_eeprom->_i2c_write
    _puts->_putch
    _display_list->_clcd_putch
    _clear_log->_clcd_print
    _clear_log->_write_external_eeprom
    _change_password->_strcpy
    _write_external_eeprom->_i2c_write
    _display_time->_clcd_putch
    _get_time->_read_ds1307
    _read_ds1307->_i2c_write
    _display_speed->_clcd_putch
    ___awdiv->___awmod
    _display_event->_clcd_putch
    _clcd_putch->___awdiv
    _clcd_print->_clcd_write
    ___fltol->___fldiv
    ___fldiv->___xxtofl

Critical Paths under _isr in COMRAM

    None.

Critical Paths under _main in BANK0

    None.

Critical Paths under _isr in BANK0

    None.

Critical Paths under _main in BANK1

    None.

Critical Paths under _isr in BANK1

    None.

Critical Paths under _main in BANK2

    None.

Critical Paths under _isr in BANK2

    None.

Critical Paths under _main in BANK3

    None.

Critical Paths under _isr in BANK3

    None.

Critical Paths under _main in BANK4

    None.

Critical Paths under _isr in BANK4

    None.

Critical Paths under _main in BANK5

    None.

Critical Paths under _isr in BANK5

    None.

Call Graph Tables:

 ---------------------------------------------------------------------------------
 (Depth) Function   	        Calls       Base Space   Used Autos Params    Refs
 ---------------------------------------------------------------------------------
 (0) _main                                                 0     0      0  145089
                  _display_dashboard
                        _init_config
                      _read_switches
              _write_external_eeprom
 ---------------------------------------------------------------------------------
 (1) _init_config                                          0     0      0    1473
                           _init_adc
                          _init_clcd
                        _init_ds1307
                           _init_i2c
                 _init_matrix_keypad
                         _init_timer
                          _init_uart
 ---------------------------------------------------------------------------------
 (2) _init_uart                                            0     0      0       0
 ---------------------------------------------------------------------------------
 (2) _init_timer                                           0     0      0       0
 ---------------------------------------------------------------------------------
 (2) _init_matrix_keypad                                   0     0      0       0
 ---------------------------------------------------------------------------------
 (2) _init_i2c                                             0     0      0       0
 ---------------------------------------------------------------------------------
 (2) _init_ds1307                                          1     1      0     821
                                              3 COMRAM     1     1      0
                        _read_ds1307
                       _write_ds1307
 ---------------------------------------------------------------------------------
 (2) _init_clcd                                            0     0      0     652
                         _clcd_write
 ---------------------------------------------------------------------------------
 (2) _init_adc                                             0     0      0       0
 ---------------------------------------------------------------------------------
 (1) _display_dashboard                                    3     3      0  142419
                                             49 COMRAM     3     3      0
                            ___fldiv
                            ___fltol
                           ___xxtofl
                         _clcd_print
                      _display_event
                      _display_speed
                       _display_time
                           _get_time
                           _login_BB
                           _read_adc
                       _store_eeprom
 ---------------------------------------------------------------------------------
 (2) _store_eeprom                                         8     4      4    1616
                                              5 COMRAM     8     4      4
               _read_external_eeprom
              _write_external_eeprom
 ---------------------------------------------------------------------------------
 (2) _read_adc                                             7     5      2      45
                                              0 COMRAM     7     5      2
 ---------------------------------------------------------------------------------
 (2) _login_BB                                             1     1      0   97453
                                             42 COMRAM     1     1      0
                            ___awdiv
                            ___awmod
                         _clcd_print
                         _clcd_putch
                       _display_menu
                      _read_password
                             _strcmp
                             _strcpy
 ---------------------------------------------------------------------------------
 (3) _read_password                                        2     0      2     253
                                              3 COMRAM     2     0      2
               _read_external_eeprom
 ---------------------------------------------------------------------------------
 (3) _display_menu                                         7     7      0   78347
                                             35 COMRAM     7     7      0
                    _change_password
                         _clcd_print
                          _clear_log
                       _display_list
                       _download_log
               _read_external_eeprom
                      _read_switches
                           _set_time
                           _view_log
 ---------------------------------------------------------------------------------
 (4) _view_log                                             7     7      0   10598
                                             16 COMRAM     7     7      0
                            ___awdiv
                            ___awmod
                         _clcd_putch
               _read_external_eeprom
 ---------------------------------------------------------------------------------
 (4) _set_time                                             4     4      0   19165
                                             16 COMRAM     4     4      0
                            ___awdiv
                            ___awmod
                         _clcd_print
                         _clcd_putch
                      _read_switches
                             _strcpy
                       _write_ds1307
 ---------------------------------------------------------------------------------
 (3) _write_ds1307                                         2     1      1     750
                                              1 COMRAM     2     1      1
                          _i2c_start
                           _i2c_stop
                          _i2c_write
 ---------------------------------------------------------------------------------
 (4) _download_log                                         0     0      0   12511
                         _clcd_print
                           _get_data
 ---------------------------------------------------------------------------------
 (5) _get_data                                            21    21      0    6168
                                             14 COMRAM    21    21      0
                            ___awdiv
                            ___awmod
                               _puts
               _read_external_eeprom
 ---------------------------------------------------------------------------------
 (3) _read_external_eeprom                                 2     2      0      67
                                              1 COMRAM     2     2      0
                           _i2c_read
                      _i2c_rep_start
                          _i2c_start
                           _i2c_stop
                          _i2c_write
 ---------------------------------------------------------------------------------
 (6) _puts                                                 2     0      2     523
                                              1 COMRAM     2     0      2
                              _putch
 ---------------------------------------------------------------------------------
 (7) _putch                                                1     1      0      22
                                              0 COMRAM     1     1      0
 ---------------------------------------------------------------------------------
 (4) _display_list                                         8     4      4   12177
                                             16 COMRAM     8     4      4
                         _clcd_print
                         _clcd_putch
 ---------------------------------------------------------------------------------
 (4) _clear_log                                            0     0      0    7496
                         _clcd_print
              _write_external_eeprom
 ---------------------------------------------------------------------------------
 (4) _change_password                                      4     4      0    9857
                                              8 COMRAM     4     4      0
                         _clcd_print
                      _read_switches
                             _strcmp
                             _strcpy
              _write_external_eeprom
 ---------------------------------------------------------------------------------
 (1) _write_external_eeprom                                4     3      1    1153
                                              1 COMRAM     4     3      1
                          _i2c_start
                           _i2c_stop
                          _i2c_write
 ---------------------------------------------------------------------------------
 (3) _strcpy                                               8     4      4    1768
                                              0 COMRAM     8     4      4
 ---------------------------------------------------------------------------------
 (3) _strcmp                                               6     2      4     416
                                              0 COMRAM     6     2      4
 ---------------------------------------------------------------------------------
 (1) _read_switches                                        1     1      0      44
                                              0 COMRAM     1     1      0
                           _scan_key
 ---------------------------------------------------------------------------------
 (2) _scan_key                                             0     0      0       0
 ---------------------------------------------------------------------------------
 (2) _display_time                                         0     0      0   11818
                         _clcd_print
                         _clcd_putch
                           _get_time
 ---------------------------------------------------------------------------------
 (2) _get_time                                             0     0      0      67
                        _read_ds1307
 ---------------------------------------------------------------------------------
 (3) _read_ds1307                                          2     2      0      67
                                              1 COMRAM     2     2      0
                           _i2c_read
                      _i2c_rep_start
                          _i2c_start
                           _i2c_stop
                          _i2c_write
 ---------------------------------------------------------------------------------
 (2) _i2c_write                                            1     1      0      22
                                              0 COMRAM     1     1      0
                           _i2c_idle
 ---------------------------------------------------------------------------------
 (2) _i2c_stop                                             0     0      0       0
                           _i2c_idle
 ---------------------------------------------------------------------------------
 (2) _i2c_start                                            0     0      0       0
                           _i2c_idle
 ---------------------------------------------------------------------------------
 (4) _i2c_rep_start                                        0     0      0       0
                           _i2c_idle
 ---------------------------------------------------------------------------------
 (4) _i2c_read                                             0     0      0       0
                         _i2c_no_ack
                        _i2c_rx_mode
 ---------------------------------------------------------------------------------
 (5) _i2c_rx_mode                                          0     0      0       0
                           _i2c_idle
 ---------------------------------------------------------------------------------
 (3) _i2c_idle                                             0     0      0       0
 ---------------------------------------------------------------------------------
 (5) _i2c_no_ack                                           0     0      0       0
 ---------------------------------------------------------------------------------
 (2) _display_speed                                        2     0      2   10402
                                             16 COMRAM     2     0      2
                            ___awdiv
                            ___awmod
                         _clcd_putch
 ---------------------------------------------------------------------------------
 (5) ___awmod                                              6     2      4    2424
                                              0 COMRAM     6     2      4
 ---------------------------------------------------------------------------------
 (5) ___awdiv                                              8     4      4    2428
                                              6 COMRAM     8     4      4
                            ___awmod (ARG)
 ---------------------------------------------------------------------------------
 (2) _display_event                                        2     0      2   11849
                                             16 COMRAM     2     0      2
                         _clcd_print
                         _clcd_putch
 ---------------------------------------------------------------------------------
 (5) _clcd_putch                                           2     1      1    5408
                                             14 COMRAM     2     1      1
                            ___awdiv (ARG)
                            ___awmod (ARG)
                         _clcd_write
 ---------------------------------------------------------------------------------
 (5) _clcd_print                                           3     0      3    6343
                                              2 COMRAM     3     0      3
                         _clcd_write
 ---------------------------------------------------------------------------------
 (3) _clcd_write                                           2     1      1     652
                                              0 COMRAM     2     1      1
 ---------------------------------------------------------------------------------
 (2) ___xxtofl                                            14    10      4     474
                                              0 COMRAM    14    10      4
 ---------------------------------------------------------------------------------
 (2) ___fltol                                             10     6      4     381
                                             39 COMRAM    10     6      4
                            ___fldiv (ARG)
                           ___xxtofl (ARG)
 ---------------------------------------------------------------------------------
 (2) ___fldiv                                             25    17      8    1551
                                             14 COMRAM    25    17      8
                           ___xxtofl (ARG)
 ---------------------------------------------------------------------------------
 Estimated maximum stack depth 7
 ---------------------------------------------------------------------------------
 (Depth) Function   	        Calls       Base Space   Used Autos Params    Refs
 ---------------------------------------------------------------------------------
 (10) _isr                                                 0     0      0       0
 ---------------------------------------------------------------------------------
 Estimated maximum stack depth 10
 ---------------------------------------------------------------------------------

 Call Graph Graphs:

 _main (ROOT)
   _display_dashboard
     ___fldiv
       ___xxtofl (ARG)
     ___fltol
       ___fldiv (ARG)
       ___xxtofl (ARG)
     ___xxtofl
     _clcd_print
       _clcd_write
     _display_event
       _clcd_print
       _clcd_putch
         ___awdiv (ARG)
           ___awmod (ARG)
         ___awmod (ARG)
         _clcd_write (ARG)
     _display_speed
       ___awdiv
       ___awmod
       _clcd_putch
     _display_time
       _clcd_print
       _clcd_putch
       _get_time
         _read_ds1307
           _i2c_read
             _i2c_no_ack
             _i2c_rx_mode
               _i2c_idle
           _i2c_rep_start
             _i2c_idle
           _i2c_start
             _i2c_idle
           _i2c_stop
             _i2c_idle
           _i2c_write
             _i2c_idle
     _get_time
     _login_BB
       ___awdiv
       ___awmod
       _clcd_print
       _clcd_putch
       _display_menu
         _change_password
           _clcd_print
           _read_switches
             _scan_key
           _strcmp
           _strcpy
           _write_external_eeprom
             _i2c_start
             _i2c_stop
             _i2c_write
         _clcd_print
         _clear_log
           _clcd_print
           _write_external_eeprom
         _display_list
           _clcd_print
           _clcd_putch
         _download_log
           _clcd_print
           _get_data
             ___awdiv
             ___awmod
             _puts
               _putch
             _read_external_eeprom
               _i2c_read
               _i2c_rep_start
               _i2c_start
               _i2c_stop
               _i2c_write
         _read_external_eeprom
         _read_switches
         _set_time
           ___awdiv
           ___awmod
           _clcd_print
           _clcd_putch
           _read_switches
           _strcpy
           _write_ds1307
             _i2c_start
             _i2c_stop
             _i2c_write
         _view_log
           ___awdiv
           ___awmod
           _clcd_putch
           _read_external_eeprom
       _read_password
         _read_external_eeprom
       _strcmp
       _strcpy
     _read_adc
     _store_eeprom
       _read_external_eeprom
       _write_external_eeprom
   _init_config
     _init_adc
     _init_clcd
       _clcd_write
     _init_ds1307
       _read_ds1307
       _write_ds1307
     _init_i2c
     _init_matrix_keypad
     _init_timer
     _init_uart
   _read_switches
   _write_external_eeprom

 _isr (ROOT)

 Address spaces:
Name               Size   Autos  Total    Cost      Usage
BIGRAM             5FF      0       0      26        0.0%
BITBIGSFRll        281      0       0      24        0.0%
EEDATA             100      0       0       0        0.0%
BITBANK5           100      0       0      14        0.0%
BANK5              100      0       0      15        0.0%
BITBANK4           100      0       0      12        0.0%
BANK4              100      0       0      13        0.0%
BITBANK3           100      0       0      10        0.0%
BANK3              100      0       0      11        0.0%
BITBANK2           100      0       0       8        0.0%
BANK2              100      0       0       9        0.0%
BITBANK1           100      0       0       6        0.0%
BANK1              100      0       0       7        0.0%
BITBANK0            A0      0       0       4        0.0%
BANK0               A0      0      78       5       75.0%
BITCOMRAM           5E      0       0       0        0.0%
COMRAM              5E     34      59       1       94.7%
BITBIGSFRlhhhh      19      0       0      17        0.0%
BITBIGSFRlhhlhh     10      0       0      19        0.0%
BITBIGSFRlhl         F      0       0      23        0.0%
BITBIGSFRh           D      0       0      16        0.0%
BITBIGSFRlhhhlh      B      0       0      18        0.0%
BITBIGSFRlhhlhh      9      0       0      20        0.0%
BITBIGSFRlhhll       7      0       0      22        0.0%
BITBIGSFRlhhlhl      2      0       0      21        0.0%
BIGSFR               0      0       0     200        0.0%
BITSFR_3             0      0       0     200        0.0%
SFR_3                0      0       0     200        0.0%
BITSFR_2             0      0       0     200        0.0%
SFR_2                0      0       0     200        0.0%
BITSFR_1             0      0       0     200        0.0%
SFR_1                0      0       0     200        0.0%
BITSFR               0      0       0     200        0.0%
SFR                  0      0       0     200        0.0%
STACK                0      0       0       2        0.0%
NULL                 0      0       0       0        0.0%
ABS                  0      0      D1      25        0.0%
DATA                 0      0      D1       3        0.0%
CODE                 0      0       0       0        0.0%


Microchip Technology PIC18 Macro Assembler V2.41 build 20230208172133 
Symbol Table                                                                                   Tue Feb 27 14:31:20 2024

                      get_data@add 0022                        get_data@ind 0021  
                     ___fldiv@aexp 0027                       ___fldiv@bexp 0026  
                     ___fldiv@sign 001F              _write_external_eeprom 2A24  
                   clcd_print@addr 0005                     clcd_print@data 0003  
                     get_data@temp 0023                                 l34 29C8  
                               l27 2BAE                                 l61 2B12  
                               l70 2C3C                                 l57 2AD8  
                               l58 2ADC                                 l67 27C8  
                               l91 1F84                                 l83 2C8C  
                               l94 1FB2                                 l86 1F5C  
                               l95 1FEE                                 l87 2048  
                               l96 1FC6                                 l88 1F98  
                               l89 1F70                                 _GO 7E11  
                               l98 1FDA                       ___awdiv@sign 000C  
               _init_matrix_keypad 2C7C       change_password@chng_psw_temp 00C4  
                              l101 200A                                l103 201E  
                              l104 2046                                l105 2032  
                              l201 29F6                                l116 26F0  
                              l204 2A22                                l401 22F0  
                              l410 1A90                                l251 1430  
                              l139 2C24                                l500 08B8  
                              l501 09D4                                l421 2548  
                              l261 130E       change_password@chng_psw_star 00A0  
                              l430 1C60                                l422 2576  
                              l415 24B8                                l416 24F0  
                              l272 1552                                l601 2CD6  
                              l450 015E                                l266 1404  
                              l275 2892                                l604 2CE4  
                              l532 25FA                                l372 0CF0  
                              l541 2B66                                l509 0A92  
                              l461 02EA                                l454 019E  
                              l446 00BC                                l198 2BCE  
                              l607 2CB6                                l375 0CAE  
                              l535 2944                                l720 267A  
                              l712 2BEE                                l472 05EE  
                              l448 00AC                                l705 17A0  
                              l650 2A62                                l538 2C0C  
                              l394 0E36                                l715 2B8C  
                              l396 0E5C                                l644 1F40  
                              l581 2C9C                                l653 2B3C  
                              l709 184A                                l582 2C9E  
                              l638 1E8E                                l719 2670  
                              l495 0790                                l751 2C68  
                              l592 2CBE                                l576 2C52  
                              l745 2C7A                                l579 2C8E  
                              l595 2CCE                                l748 2C56  
                              l589 2CC6                                l757 28F0  
                              l598 2CAA                                l695 1652  
                              _CKE 7E3E                                _GIE 7F97  
                              _RC0 7C10                                _RC1 7C11  
                              _RC2 7C12                      ?_display_menu 0001  
                              _RD7 7C1F                      ?_display_list 0011  
                              _PEN 7E2A                                _SEN 7E28  
                              _PSA 7EAB                                _SMP 7E3F  
                    ?_display_time 0001                                _key 0052  
                              _isr 0008                     clcd_putch@addr 000F  
                   clcd_putch@data 0010                       ___awmod@sign 0006  
                              prod 0FF3                                wreg 0FE8  
              ?_init_matrix_keypad 0001                       ___fltol@exp1 0031  
                             l1000 23B4                               l1013 2464  
                             l1066 214E                               l3020 2CE0  
                             l3014 2C8E                               l3022 2CC0  
                             l3030 2CB8                               l3110 1FE8  
                             l1351 11F6                               l1431 1D50  
                             l1424 1CB8                               l3200 23A4  
                             l3016 2CD0                               l3040 2CB4  
                             l3024 2CC2                               l3032 2CBA  
                             l3120 2018                               l3104 1FD4  
                             l4000 134A                               l1353 1056  
                             l1362 109C                               l3050 2AB8  
                             l3202 23AC                               l3210 23C8  
                             l3018 2CD2                               l3034 2CC8  
                             l3026 2CA2                               l3114 2004  
                             l4010 1384                               l4002 135A  
                             l2402 2C7C                               l1427 1E14  
                             l1364 1114                               l1356 101A  
                             l3060 2AC4                               l3052 2ABC  
                             l3220 23FC                               l3212 23D0  
                             l3036 2CCA                               l3028 2CA6  
                             l3132 2040                               l3300 2720  
                             l3044 2C56                               l3140 2B16  
                             l4020 1406                               l4012 13A2  
                             l4004 136A                               l4100 1F06  
                             l2404 2C84                               l1365 1102  
                             l1438 1DAC                               l3062 2AC6  
                             l3054 2ABE                               l3230 2438  
                             l3222 2404                               l3214 23D4  
                             l3206 23B6                               l3038 2CAC  
                             l4110 2BD4                               l3126 202C  
                             l3070 1F56                               l3302 2738  
                             l1454 2AA2                               l3046 2C64  
                             l3150 2B36                               l3142 2B1A  
                             l3310 1A92                               l4030 1482  
                             l4022 1432                               l4014 13D4  
                             l4006 1370                               l4102 1F22  
                             l2406 2C86                               l2430 2C1C  
                             l2422 2C0E                               l4200 1018  
                             l3064 2AC8                               l3056 2AC0  
                             l3048 2AA6                               l3232 243E  
                             l3224 240C                               l3216 23E2  
                             l3208 23BA                               l4120 25FC  
                             l4112 2BE4                               l3136 2046  
                             l1448 275C                               l3160 28C0  
                             l3144 2B20                               l3320 1AEA  
                             l3312 1AA6                               l3400 1944  
                             l4040 14D4                               l4032 1494  
                             l4024 1442                               l4016 13F2  
                             l4008 1380                               l4104 1F2C  
                             l2440 2BC4                               l2432 2C1E  
                             l2424 2C10                               l4210 1066  
                             l4202 1024                               l4130 0E78  
                             l3066 2ACA                               l3058 2AC2  
                             l4114 2B68                               l3170 2310  
                             l3162 22F2                               l3226 241A  
                             l3234 2444                               l3218 23EA  
                             l4122 2618                               l3082 1F7E  
                             l3306 2A64                               l3250 2A3C  
                             l3242 2A26                               l3154 2894  
                             l3146 2B26                               l3330 1B28  
                             l3322 1AEC                               l3314 1AC2  
                             l3410 19E8                               l3402 1962  
                             l4042 14E2                               l4034 14A6  
                             l4026 1444                               l4018 13F4  
                             l4106 1F30                               l2442 2BCC  
                             l2450 2C4C                               l2434 2C20  
                             l2426 2C18                               l4212 107C  
                             l4220 10AC                               l4204 1042  
                             l4140 0EAC                               l4132 0E7A  
                             l4300 211E                               l4116 2B78  
                             l3180 2344                               l3172 231E  
                             l3164 22F6                               l3236 2454  
                             l3228 2430                               l4124 265C  
                             l4108 2BD0                               l3092 1FAC  
                             l3076 1F6A                               l3068 1F42  
                             l3260 2694                               l3308 2A74  
                             l3252 2A40                               l3244 2A2A  
                             l3156 2898                               l3148 2B2A  
                             l3340 1B68                               l3332 1B2A  
                             l3324 1B04                               l3316 1ADA  
                             l3500 0134                               l3412 1A02  
                             l3404 1986                               l4060 1532  
                             l4036 14B6                               l4044 14EA  
                             l4028 146E                               l2452 2C4E  
                             l2444 2C3E                               l2436 2C22  
                             l2428 2C1A                               l2460 2C74  
                             l4222 10BA                               l4214 1082  
                             l4206 1044                               l4150 0EDE  
                             l4134 0E8A                               l4142 0EB4  
                             l4126 0E5E                               l4302 212E  
                             l4310 1C74                               l4118 2B82  
                             l3190 237E                               l3182 234C  
                             l3174 2326                               l3166 2304  
                             l3238 245C                               l3262 26A4  
                             l3270 26BE                               l3254 2A48  
                             l3246 2A30                               l3158 28BC  
                             l3350 1BC4                               l3342 1B80  
                             l3334 1B42                               l3326 1B1C  
                             l3318 1AE2                               l3430 251A  
                             l3510 0206                               l3502 016E  
                             l3422 1A62                               l3414 1A20  
                             l3406 19AA                               l4062 1542  
                             l4046 14FC                               l4038 14C4  
                             l4070 1E3A                               l2438 2BB0  
                             l2454 2C50                               l2446 2C42  
                             l2462 2C78                               l4232 1124  
                             l4240 116C                               l4224 10BE  
                             l4216 108C                               l4208 1054  
                             l4160 0F12                               l4152 0EE0  
                             l4144 0EC4                               l4136 0E9A  
                             l4128 0E6A                               l4304 213E  
                             l4320 1CF2                               l4312 1C82  
                             l3192 2386                               l3184 2354  
                             l3176 232A                               l3168 230C  
                             l3088 1F92                               l3272 26CE  
                             l3280 26EE                               l3264 26B4  
                             l3256 267E                               l3248 2A36  
                             l3360 1C18                               l3352 1BF2  
                             l3344 1B98                               l3336 1B5E  
                             l3328 1B20                               l3440 254A  
                             l3432 2522                               l3424 24F2  
                             l3600 052E                               l3520 0244  
                             l3512 021C                               l3504 0186  
                             l3416 1A52                               l3408 19DE  
                             l4048 150E                               l4080 1E70  
                             l4072 1E4C                               l4400 163C  
                             l2448 2C4A                               l4250 11D6  
                             l4242 1186                               l4234 1130  
                             l4226 10CC                               l4218 109A  
                             l4170 0F58                               l4154 0EF0  
                             l4162 0F1A                               l4146 0ECA  
                             l4138 0EAA                               l4330 1D46  
                             l4322 1CFA                               l4314 1CC8  
                             l3290 2798                               l3194 2388  
                             l3186 2362                               l3178 2332  
                             l3098 1FC0                               l3258 268E  
                             l3274 26D6                               l3450 2492  
                             l3362 1C30                               l3354 1BF6  
                             l3346 1B9C                               l3338 1B66  
                             l3370 1C4E                               l3442 255A  
                             l3434 2524                               l3426 2512  
                             l3610 059A                               l3602 0538  
                             l3530 02AA                               l3522 025E  
                             l3514 022A                               l3506 01E6  
                             l4058 1522                               l4090 1EA8  
                             l4082 1E82                               l4074 1E54  
                             l4066 1E18                               l4410 16C2  
                             l4402 164C                               l2458 2C6A  
                             l4252 11E4                               l4244 119C  
                             l4236 113E                               l4228 10FA  
                             l4180 0F80                               l4172 0F5C  
                             l4164 0F2A                               l4156 0F00  
                             l4148 0ED0                               l4340 1DBC  
                             l4332 1D82                               l4324 1D06  
                             l4316 1CDE                               l4308 1C64  
                             l3284 275E                               l3292 2C28  
                             l3196 238E                               l3188 2368  
                             l3276 26E6                               l3700 0894  
                             l3620 063A                               l3460 24CA  
                             l3452 2494                               l3444 2466  
                             l3364 1C34                               l3356 1BFE  
                             l3348 1BA6                               l3436 2536  
                             l3428 2516                               l3380 2C08  
                             l3372 2BF2                               l3612 05B4  
                             l3604 054C                               l3540 0332  
                             l3532 02BA                               l3516 023A  
                             l3524 0288                               l3508 01F6  
                             l4092 1EBC                               l4076 1E64  
                             l4068 1E28                               l4420 170A  
                             l4404 1652                               l4412 16D8  
                             l4254 11EA                               l4246 11B6  
                             l4238 1168                               l4190 0FCE  
                             l4166 0F40                               l4158 0F10  
                             l4270 2074                               l4350 1E04  
                             l4342 1DC0                               l4334 1D8E  
                             l4326 1D38                               l3286 276C  
                             l3198 2394                               l3294 26F2  
                             l3702 08A6                               l3630 069E  
                             l3622 0642                               l3710 08FA  
                             l3614 05F2                               l3462 24E6  
                             l3454 24A6                               l3446 2486  
                             l3366 1C40                               l3358 1C00  
                             l3438 2538                               l3374 2BF6  
                             l3606 055E                               l3550 0370  
                             l3542 0348                               l3534 02D2  
                             l3526 0294                               l3518 0240  
                             l3470 005C                               l3390 18AA  
                             l3382 184C                               l4094 1ED0  
                             l4078 1E66                               l4430 1750  
                             l4422 1712                               l4414 16DC  
                             l4406 1660                               l4256 11EC  
                             l4248 11D2                               l4192 0FDE  
                             l4184 0F94                               l4168 0F50  
                             l4176 0F70                               l4280 20C2  
                             l4272 209E                               l4264 204A  
                             l4344 1DE4                               l4336 1D9C  
                             l4328 1D3A                               l3288 2794  
                             l3296 26F6                               l3720 0980  
                             l3712 091A                               l3704 08A8  
                             l3640 06E4                               l3632 06D4  
                             l3624 0652                               l3616 0602  
                             l3456 24A8                               l3448 248A  
                             l3368 1C4C                               l3376 2BFC  
                             l3608 0596                               l3560 03D6  
                             l3552 038A                               l3544 0356  
                             l3528 02A0                               l3536 0310  
                             l3480 0092                               l3472 0060  
                             l3464 0012                               l3392 18C6  
                             l3384 1864                               l3800 0B70  
                             l4096 1EFE                               l4088 1E96  
                             l4440 179A                               l4432 1762  
                             l4424 1724                               l4408 16BE  
                             l4416 16E6                               l4360 2B9E  
                             l4194 0FE6                               l4186 0FAE  
                             l4178 0F80                               l4290 20EE  
                             l4274 20A0                               l4266 2060  
                             l4346 1DF4                               l4338 1DBA  
                             l3298 26FE                               l3730 0A0A  
                             l3714 092C                               l3706 08BA  
                             l3650 0702                               l3642 06EC  
                             l3634 06D8                               l3626 0662  
                             l3618 0614                               l3458 24BA  
                             l3378 2C02                               l3562 03E2  
                             l3546 0366                               l3554 03B4  
                             l3538 0322                               l3570 0438  
                             l3490 00F2                               l3482 00A2  
                             l3474 0062                               l3466 0042  
                             l3394 18E4                               l3386 1882  
                             l3810 0BD2                               l3802 0B78  
                             l4098 1F02                               l4450 1834  
                             l4434 1772                               l4426 1736  
                             l4442 17A0                               l4418 16FA  
                             l4370 1556                               l4362 2BA2  
                             l4354 2B8E                               l4196 0FF6  
                             l4188 0FBE                               l4276 20B0  
                             l4348 1E02                               l3740 0A82  
                             l3732 0A38                               l3724 09C0  
                             l3716 0968                               l3708 08CA  
                             l3660 075E                               l3652 0716  
                             l3644 06F0                               l3636 06DC  
                             l3628 0674                               l3580 04C8  
                             l3572 044A                               l3564 03EE  
                             l3556 03C0                               l3548 036C  
                             l3492 0100                               l3484 00A8  
                             l3476 006A                               l3468 004C  
                             l3396 190C                               l3388 18A0  
                             l3900 0DF0                               l3812 0BE2  
                             l3820 0C30                               l3804 0B88  
                             l4444 17BC                               l4436 1778  
                             l4428 1748                               l4380 15AC  
                             l4372 1566                               l4364 2BA6  
                             l4356 2B96                               l4452 2992  
                             l4198 100A                               l4286 20DA  
                             l4278 20B4                               l3734 0A3E  
                             l3718 096E                               l3670 0780  
                             l3662 0762                               l3654 072A  
                             l3646 06F4                               l3638 06E0  
                             l3726 09D8                               l3750 2278  
                             l3742 222C                               l3590 0518  
                             l3582 04E4                               l3574 0480  
                             l3566 0408                               l3558 03CC  
                             l3494 0110                               l3486 00CC  
                             l3478 007A                               l3398 1926  
                             l3910 0E46                               l3902 0E04  
                             l3830 0C7C                               l3822 0C42  
                             l3814 0BF6                               l3806 0B9A  
                             l4446 17CA                               l4438 178A  
                             l4390 15FA                               l4382 15BC  
                             l4374 1578                               l4366 2BAA  
                             l4358 2B9A                               l4454 29D0  
                             l4296 2102                               l4288 20E4  
                             l3760 2B44                               l3920 25B6  
                             l3736 0A50                               l3728 09F8  
                             l3680 07FA                               l3672 0792  
                             l3664 076A                               l3656 073E  
                             l3648 06F8                               l3744 223C  
                             l3752 22B0                               l3592 051C  
                             l3584 0502                               l3576 0498  
                             l3568 0420                               l3496 0116  
                             l3488 00DC                               l3904 0E1C  
                             l3912 0E48                               l3840 0C9E  
                             l3832 0C80                               l3824 0C52  
                             l3816 0C26                               l3808 0BB6  
                             l4448 1828                               l4392 1602  
                             l4384 15C4                               l4376 1588  
                             l4368 2BAC                               l4298 210E  
                             l3762 2B4A                               l3930 25F6  
                             l3922 25CA                               l3914 2578  
                             l3690 085E                               l3682 080E  
                             l3674 07A2                               l3666 076C  
                             l3658 074E                               l3754 22C4  
                             l3746 2246                               l3594 0520  
                             l3586 0512                               l3578 04AC  
                             l3498 011A                               l3906 0E2C  
                             l3850 0D08                               l3842 0CB0  
                             l3834 0C88                               l3826 0C54  
                             l3818 0C2E                               l4394 1614  
                             l4386 15D6                               l4378 159A  
                             l3764 2B50                               l3924 25CE  
                             l3916 2590                               l3692 0872  
                             l3668 077E                               l3676 07BE  
                             l3684 0826                               l3748 226E  
                             l3596 0524                               l3588 0514  
                             l3908 0E32                               l3860 0D2E  
                             l3852 0D0C                               l3844 0CC0  
                             l3836 0C8A                               l3828 0C5C  
                             l3780 0AB0                               l3772 2830  
                             l4396 1624                               l4388 15E8  
                             l3940 2AF4                               l3932 2ADE  
                             l3766 2B54                               l3758 2B40  
                             l3926 25D8                               l3918 259E  
                             l3694 0886                               l3686 0846  
                             l3678 07D0                               l3598 052C  
                             l3870 0D36                               l3854 0D10  
                             l3838 0C9C                               l3846 0CF4  
                             l3790 0B2A                               l3782 0ACC  
                             l3774 2884                               l3950 29F4  
                             l4398 162A                               l3942 2AFE  
                             l3934 2AE2                               l3768 2B60  
                             l3928 25E0                               l3696 088A  
                             l3688 084A                               l3880 0D6A  
                             l3872 0D48                               l3856 0D14  
                             l3848 0D04                               l3792 0B32  
                             l3784 0AEC                               l3776 0A96  
                             l3960 120E                               l3952 2A04  
                             l3944 2B08                               l3936 2AE8  
                             l3698 0892                               l3890 0DC0  
                             l3874 0D4C                               l3858 0D1C  
                             l3794 0B3C                               l3882 0D74  
                             l3786 0AFC                               l3778 0A9E  
                             l3970 1270                               l3962 121E  
                             l3954 2A1A                               l3938 2AEA  
                             l3946 28F2                               l3892 0DC6  
                             l3884 0D84                               l3876 0D54  
                             l3796 0B4C                               l3788 0B0E  
                             l3980 12AE                               l3972 1284  
                             l3964 122A                               l3948 29E0  
                             l3894 0DCA                               l3886 0D98  
                             l3878 0D66                               l3798 0B60  
                             l3990 12FC                               l3982 12CA  
                             l3974 1288                               l3966 123A  
                             l3958 11FA                               l3896 0DDA  
                             l3888 0DB0                               l3992 12FE  
                             l3984 12D0                               l3976 1292  
                             l3968 1260                               _ADFM 7E07  
                             l3898 0DE0                               l3994 1310  
                             l3986 12E0                               l3978 129A  
                             l3988 12F0                               l3996 1336  
                             ?_isr 0001                               l3998 133A  
                             _ADON 7E10                               STR_1 2FC6  
                             STR_2 2FC6                               STR_3 2F0C  
                             STR_4 2F9F                               STR_5 2F1D  
                             STR_6 2FD5                               STR_7 2FDF  
                             STR_8 2FC6                               STR_9 2F2E  
                             _BRGH 7D62                               _CREN 7D5C  
                             _T0CS 7EAD                               u2100 2C9C  
                             u2101 2C98                               u2110 2C64  
                             u2111 2C60                               u2120 2AB6  
                             u2200 1FC0                               u3000 0B2A  
                             u2121 2AB0                               u2201 1FBC  
                             u3001 0B26                               u2210 1FD4  
                             u3010 0B4C                               u2211 1FD0  
                             u3011 0B48                               u2140 2AD8  
                             u2300 2304                               u2220 1FE8  
                             u3100 0C52                               u3020 0B60  
                             u2141 2AD4                               u2301 2300  
                             u2221 1FE4                               u3101 0C4E  
                             u3021 0B5C                               u2310 231E  
                             u2230 2004                               u2150 1F56  
                             u3110 0CAE                               u3030 0B70  
                             u2135 2AB8                               u2311 231A  
                             u2231 2000                               u2151 1F52  
                             u3111 0CAA                               u3031 0B6C  
                             u2320 2344                               u2400 2430  
                             u2240 2018                               u2160 1F6A  
                             u3200 0DDA                               u3120 0D04  
                             u3040 0B9A                               u4000 1624  
                             u2321 2340                               u2401 242C  
                             u2241 2014                               u2161 1F66  
                             u3201 0DD6                               u3121 0D00  
                             u3041 0B96                               u4001 1620  
                             u2330 2362                               u2410 2454  
                             u2250 202C                               u2170 1F7E  
                             u3210 0DF0                               u3130 0D2E  
                             u3050 0BB6                               u4010 163C  
                             u2331 235E                               u2411 2450  
                             u2251 2028                               u2171 1F7A  
                             u3211 0DEC                               u3131 0D2A  
                             u3051 0BB2                               u4011 1638  
                             u2500 27C8                               u2340 237E  
                             u2260 2040                               u2180 1F92  
                             u2420 2A62                               u3220 0E04  
                             u3140 0D48                               u3060 0BE2  
                             u3300 123A                               u4100 179A  
                             u4020 164C                               u2501 27C4  
                             u2341 237A                               u2261 203C  
                             u2181 1F8E                               u2421 2A5E  
                             u3221 0E00                               u3141 0D44  
                             u3061 0BDE                               u3301 1236  
                             u4101 1796                               u4021 1648  
                             u2350 23A4                               u2190 1FAC  
                             u2430 268E                               u2510 2720  
                             u2270 28B8                               u3230 0E1C  
                             u3150 0D66                               u3070 0BF6  
                             u3310 1260                               u4030 170A  
                             u2351 23A0                               u2191 1FA8  
                             u2431 268A                               u2511 271C  
                             u3231 0E18                               u3151 0D62  
                             u3071 0BF2                               u3311 125C  
                             u4031 1706                               u2360 23C8  
                             u2440 26A4                               u2520 2738  
                             u2280 28E0                               u2600 007A  
                             u3240 0E2C                               u3160 0D84  
                             u3080 0C26                               u3320 1270  
                             u3400 1E28                               u4040 1724  
                   ?_display_event 0011                               u2361 23C4  
                             u2441 26A0                               u2521 2734  
                             u2601 0076                               u3241 0E28  
                             u3161 0D80                               u3081 0C22  
                             u3321 126C                               u3401 1E24  
                             u4041 1720                               u2370 23E2  
                             u2450 26B4                               u2530 2AA2  
                             u2290 28F0                               u2610 0092  
                             u3250 0E46                               u3170 0D98  
                             u3090 0C42                               u3330 12CA  
                             u3410 1E3A                               u4050 1736  
                             u2371 23DE                               u2451 26B0  
                             u2531 2A9E                               u2291 28EC  
                             u2611 008E                               u3251 0E42  
                             u3171 0D94                               u3091 0C3E  
                             u3331 12C6                               u3411 1E36  
                             u4051 1732                               u3500 0E78  
                             u2380 23FC                               u3260 259E  
                             u2460 26CE                               u2540 1AA6  
                             u2700 021C                               u2620 00A2  
                             u3180 0DB0                               u3340 130E  
                             u3420 1E4C                               u4060 1748  
                             u3501 0E74                               u2381 23F8  
                             u3261 259A                               u2461 26CA  
                             u2277 28AE                               u2541 1AA2  
                             u2701 0218                               u2621 009E  
                             u3181 0DAC                               u3341 130A  
                             u3421 1E48                               u4061 1744  
                             u3510 0E8A                               u2390 241A  
                             u2470 26E6                               u2550 1C60  
                             u2710 023A                               u2630 00CC  
                             u3190 0DC0                               u3350 1380  
                             u3270 2A04                               u3430 1E64  
                             u4070 1762                               u3511 0E86  
                             u2391 2416                               u2471 26E2  
                             u2287 28D6                               u2551 1C5C  
                             u2711 0236                               u2631 00C8  
                             u3191 0DBC                               u3351 137C  
                             u3271 2A00                               u3431 1E60  
                             u4071 175E                               u3600 1042  
                             u3520 0E9A                               u2480 2790  
                             u2800 055E                               u2720 02BA  
                             u2640 00DC                               u2560 1A90  
                             u3360 1404                               u3280 120E  
                             u3440 1E82                               u4080 1772  
                             u3601 103E                               u3521 0E96  
                             u2801 055A                               u2721 02B6  
                             u2641 00D8                               u2561 1A8C  
                             u3361 1400                               u3281 120A  
                             u3441 1E7E                               u4081 176E  
                             u3610 1066                               u3530 0EDE  
                             u2490 27B8                               u2570 2548  
                             u2810 0596                               u2730 0322  
                             u2650 00F2                               u3370 1442  
                             u3290 121E                               u3450 1EA8  
                             u4090 178A              ?_read_external_eeprom 0001  
                             u3611 1062                               u3531 0EDA  
                             u2571 2544                               u2811 0592  
                             u2731 031E                               u2651 00EE  
                             u3371 143E                               u3291 121A  
                             u3451 1EA4                               u4091 1786  
                             u3700 1186                               u3620 107C  
                             u3540 0EF0                               u2900 08B8  
                             u2820 0602                               u2580 24B8  
                             u2740 0332                               u2660 0110  
                             u3380 1494                               u3460 1EBC  
                             u3701 1182                               u3621 1078  
                             u3541 0EEC                               u2901 08B4  
                             u2821 05FE                               u2581 24B4  
                             u2741 032E                               u2661 010C  
                             u3381 1490                               u3461 1EB8  
                             u3710 11B6                               u3630 109A  
                             u3550 0F00                               u2910 092C  
                             u2830 0614                               u2750 0348  
                             u2670 016E                               u2590 005C  
                             u3390 14FC                               u3470 1ED0  
                             u3711 11B2                               u3631 1096  
                             u3551 0EFC                               u2487 2786  
                             u2911 0928                               u2831 0610  
                             u2751 0344                               u2671 016A  
                             u2591 0058                               u3391 14F8  
                             u3471 1ECC                               u3720 11E4  
                             u3640 10BA                               u3560 0F40  
                             u3800 1C74                               u2920 0980  
                             u2840 063A                               u2760 0366  
                             u2680 01F6                               u3480 1F22  
                             u3721 11E0                               u3641 10B6  
                             u3561 0F3C                               u3801 1C70  
                             u2497 27AE                               u2921 097C  
                             u2841 0636                               u2761 0362  
                             u2681 01F2                               u3481 1F1E  
                             u3650 10CC                               u3570 0F80  
                             u3730 2060                               u3810 1C82  
                             u3490 2618                               u2930 0A0A  
                             u2850 0674                               u2770 0408  
                             u2690 0206                               u3651 10C8  
                             u3571 0F7C                               u3731 205C  
                             u3811 1C7E                               u3491 2614  
                             u2931 0A06                               u2851 0670  
                             u2771 0404                               u2691 0202  
                             _PEIE 7F96                               u3660 10FA  
                             u3580 0FF6                               u3740 2094  
                             u3820 1CDE                               u2940 0A50  
                             u2860 069E                               u2780 044A  
                             u3900 1566                               u3661 10F6  
                             u3581 0FF2                               u3821 1CDA  
                             u2941 0A4C                               u2861 069A  
                             u2781 0446                               u3901 1562  
                             u3670 1110                               u3590 1018  
                             u3750 20C2                               u3830 1D34  
                             u2870 0790                               u2950 223C  
                             u2790 0480                               u3910 1578  
                             u3671 110C                               u3591 1014  
                             u3751 20BE                               u3831 1D30  
                             u2871 078C                               u2951 2238  
                             u2791 047C                               u3911 1574  
                             u3680 1124                               u3760 20D6  
                             u3840 1D7E                               u2880 07D0  
                             u2960 0AB0                               u3920 1588  
                             u3681 1120                               u3761 20D2  
                             u3745 208A                               u3841 1D7A  
                             u2881 07CC                               u2961 0AAC  
                             u3921 1584                               u3690 113E  
                             u3770 20FE                               u3850 1D9C  
                             u2890 07FA                               u2970 0ACC  
                             u3930 159A                               u3691 113A  
                             u3771 20FA                               u3851 1D98  
                             u2891 07F6                               u2971 0AC8  
                             u3931 1596                               _RCIE 7CED  
                             u3780 211E                               u3860 1DAC  
                             u2980 0AFC                               u3940 15AC  
                             _RCEN 7E2B                               _RCIF 7CF5  
                             u3781 211A                               u3861 1DA8  
                             u2981 0AF8                               u3941 15A8  
                             u3790 212E                               u3870 1DBA  
                             u2990 0B0E                               u3950 15BC  
                             u3791 212A                               u3871 1DB6  
                             u2991 0B0A                               u3951 15B8  
                             u3880 1DF4                               u3960 15D6  
                             u3881 1DF0                               u3961 15D2  
                             u3890 1E02                               u3970 15E8  
                             u3891 1DFE                               u3971 15E4  
                             u3980 15FA                               u3981 15F6  
                             u3990 1614                               u3991 1610  
                             _RBPU 7F8F                               _TMR0 0FD6  
                             _SPEN 7D5F                               _RSEN 7E29  
                             _TXIF 7CF4                     ?_display_speed 0011  
                             _main 2992                               _wait 0084  
                             _time 0090                               fsr0h 0FEA  
                             fsr1h 0FE2                               indf0 0FEF  
                             fsr2h 0FDA                               fsr0l 0FE9  
                             indf2 0FDF                               fsr1l 0FE1  
                             fsr2l 0FD9                               btemp 005A  
                             _puts 2894                               prodh 0FF4  
                             prodl 0FF3                               start 000E  
                  ___fldiv@new_exp 0020               ??_init_matrix_keypad 0001  
                    _psw_mode_flag 004D                       ___param_bank 0000  
                   clcd_write@byte 0002                      _i2c_rep_start 2CC8  
                    ??_i2c_rx_mode 0001                              ??_isr 0001  
                     ?_init_ds1307 0001                      ___fltol@sign1 0030  
                   ??_display_menu 0024                              _ADCS0 7E00  
                   ??_display_list 0015                              _ADCS1 7E01  
                            _ADCS2 7E02                              ?_main 0001  
                     ?_read_ds1307 0001                              _ACKEN 7E2C  
                            _ACKDT 7E2D                     ??_display_time 0011  
                            _BCLIF 7D0B                    __end_of___fldiv 11F8  
                            _ACQT0 7E03                              _ACQT1 7E04  
                            _ACQT2 7E05                    __end_of___awdiv 23B6  
                            STR_10 2FBE                              STR_11 2F4F  
                            STR_20 2E84                              STR_12 2F6F  
                            STR_21 2EA6                              STR_13 2F5F  
                            STR_30 2FC6                              STR_22 2E84  
                            STR_14 2F3F                              STR_31 2FC6  
                            STR_23 2FCB                              STR_15 2F8F  
                            STR_24 2FFC                              STR_16 2F7F  
                            STR_32 2ED9                              STR_40 2E95  
                            STR_25 2FAF                              STR_41 2EEA  
                            STR_33 2EC8                              STR_17 2E62  
                            STR_26 2FFC                              STR_42 2FC6  
                            STR_34 2FC6                              STR_18 2E40  
                            STR_50 2FF9                              STR_27 2FFC  
                            STR_43 2FC6                              STR_35 2FC6  
                            STR_19 2E73                              STR_51 2FF3  
                            STR_44 2FC6                              STR_36 2FC6  
                            STR_28 2E51                              STR_52 2FE7  
                  __end_of___awmod 2466                              STR_29 2FC6  
                            STR_37 2EFB                              STR_45 2EB7  
                            STR_53 2FEA                              STR_46 2FBE  
                            STR_38 2E84                              STR_54 2FED  
                            STR_39 2FC6                              STR_47 2F2E  
                            STR_55 2FF0                              STR_48 2FBE  
                            STR_56 2FE4                              STR_57 2E2F  
                            STR_49 2FF6                    __end_of___fltol 2150  
                            ?_puts 0002                    ___awdiv@divisor 0009  
                            _T0PS0 7EA8                              _T0PS1 7EA9  
                            _T0PS2 7EAA                       ?_init_config 0001  
                            i2l165 2228                    ___awdiv@counter 000B  
                            _VCFG0 7E0C                              _VCFG1 7E0D  
                            _RCREG 0FAE                              _SPBRG 0FAF  
                            _PORTB 0F81                              _PORTD 0F83  
                            _TRISB 0F93                              _TRISC 0F94  
                            _TRISD 0F95                              _SSPIF 7CF3  
                            _TXREG 0FAD          write_external_eeprom@data 0002  
                            _min_2 0057                              _count 00B4  
                            _event 0074                              _speed 00AC  
                            _putch 2C54                       view_log@temp 0017  
                  _change_password 05F0                              tablat 0FF5  
                            puts@s 0002                              ttemp5 005B  
                            ttemp6 005E                              ttemp7 0062  
                            status 0FD8                              wtemp8 005B  
                 init_ds1307@dummy 0004                         _i2c_no_ack 2CE0  
                  __initialization 27CA                     ?_i2c_rep_start 0001  
                     _store_eeprom 1E16             ?_write_external_eeprom 0002  
                 get_data@dwn_data 0011                       __end_of_main 29DE  
                     __end_of_puts 28F2                   __end_of_i2c_idle 2CA0  
                 __end_of_i2c_read 2CB8                   __end_of_i2c_stop 2CC0  
                    ?_download_log 0001                             ??_main 0035  
                           ??_puts 0004                      __activetblptr 0002  
              __end_of_i2c_rx_mode 2CD8                    ??_display_event 0013  
                           _ADCON0 0FC2                             _ADCON1 0FC1  
                 read_switches@key 0051             ??_read_external_eeprom 0002  
                  ??_display_speed 0013                             _ADRESH 0FC4  
                           _ADRESL 0FC3                   ___awdiv@dividend 0007  
                           ?_putch 0001                             _GODONE 7E11  
                           i2l4460 218A                             i2l4470 21F4  
                           i2l4462 21A8                             i2l4472 2212  
                           i2l4464 21D0                             i2l4456 2152  
                           i2l4474 2226                             i2l4466 21D4  
                           i2l4458 2160                             i2l4468 21F0  
                     _write_ds1307 2BF0                             _TMR0IE 7F95  
                           _TMR0IF 7F92                             _SSPADD 0FC8  
                           _TRISC3 7CA3                             _TRISC4 7CA4  
                           _TRISC6 7CA6                             _TRISC7 7CA7  
                           _TRISD7 7CAF                             _SSPBUF 0FC9  
                 __end_of___xxtofl 1E16                   __end_of_get_data 1C62  
                 __end_of_get_time 25FC                          ??___fldiv 0017  
                        ??___awdiv 000B                          ??___awmod 0005  
                           _delay1 00C0                             _delay2 00BE  
                           _delay3 00BC                          ??___fltol 002C  
                 __end_of_init_i2c 2C54                   __end_of_init_adc 2BD0  
                 __end_of_read_adc 2A24                             clear_0 2810  
                           clear_1 281C                     ??_download_log 0024  
                 ___awdiv@quotient 000D                    ___awmod@divisor 0003  
                 __end_of_login_BB 1554                             isa$std 0001  
                 __end_of_scan_key 204A                    ___awmod@counter 0005  
                           _strcmp 26F2                             _strcpy 2A64  
                     __pdataCOMRAM 0053            __end_of_change_password 0A94  
                 __end_of_set_time 05F0                       __mediumconst 2E2E  
                           tblptrh 0FF7                             tblptrl 0FF6  
                           tblptru 0FF8                   __end_of_view_log 1A92  
                  store_eeprom@key 000B                       ___xxtofl@arg 000B  
                     ___xxtofl@exp 000A                       ___xxtofl@val 0001  
                       __accesstop 0060            __end_of__initialization 2822  
             __end_of_display_menu 0E5E               __end_of_display_list 22F2  
             __end_of_display_time 2BF0                      ___rparam_used 0001  
                       ___fltol@f1 0028                        login_BB@key 002B  
                  ??_i2c_rep_start 0001                        ?_i2c_no_ack 0001  
                   __pcstackCOMRAM 0001              display_list@menu_name 0011  
                     __pidataBANK0 2946                        _i2c_rx_mode 2CD0  
                    __end_of_putch 2C6A                  __end_of_i2c_start 2CC8  
                __end_of_i2c_write 2CAC                            ??_putch 0001  
                       __pbssBANK0 00AC             write_external_eeprom@i 0003  
                        ?_i2c_idle 0001                          ?_i2c_read 0001  
                        ?_i2c_stop 0001               read_password@psw_arr 0004  
                       _clcd_print 275E                         _clcd_putch 2C26  
                       _clcd_write 2AA4       write_external_eeprom@address 0005  
                       _flag_1_sec 0058                         _flag_2_min 004E  
     display_dashboard@adc_reg_val 0032                         _flag_5_sec 0050  
                  read_ds1307@data 0003                  read_switches@once 0059  
                          _ACKSTAT 7E2E                            ?_strcmp 0001  
                          ?_strcpy 0001                      _read_password 2830  
             display_dashboard@key 0034                          ?___xxtofl 0001  
                 ?_change_password 0001                            _SSPCON1 0FC6  
                        ?_get_data 0001                          ?_get_time 0001  
                    _read_switches 267C                         ??_i2c_idle 0001  
                       ??_i2c_read 0001                         ??_i2c_stop 0001  
                        ?_init_i2c 0001               __end_of_download_log 2578  
                        ?_init_adc 0001                          ?_read_adc 0001  
                __end_of_clear_log 24F2                          ?_login_BB 0001  
                        ?_scan_key 0001            ??_write_external_eeprom 0003  
                          __Hparam 0000                            __Lparam 0000  
                        ?_set_time 0001                 change_password@key 000C  
                          ___fldiv 0E5E                            ___awdiv 22F2  
                          ___awmod 23B6                          ?_view_log 0001  
                          ___fltol 204A                            _address 003C  
                          __pcinit 27CA                         _init_timer 2C0E  
                          __ramtop 0600                     ?_read_password 0004  
                          __ptext0 2992                            __ptext1 2B8E  
                          __ptext2 2C6A                            __ptext3 2C0E  
                          __ptext4 2C7C                            __ptext5 2C3E  
                          __ptext6 28F2                            __ptext7 2ADE  
                          __ptext8 2BB0                            __ptext9 1554  
                          _attempt 0053                  __end_of_init_clcd 2B14  
                 set_time@time_key 0043                         ??___xxtofl 0005  
                __end_of_init_uart 2C7C                   ___awmod@dividend 0001  
                          _psw_arr 00D3                         _list_index 004B  
                   ?_read_switches 0001                         _list_event 0048  
                       ??_get_data 000F                         ??_get_time 0004  
                   __pintcode_body 2150               end_of_initialization 2822  
                       ??_init_i2c 0001         display_list@direction_flag 0014  
                       ??_init_adc 0001                      __Lmediumconst 2E2E  
                       ??_read_adc 0003                            int_func 2150  
                       ??_login_BB 002B                         ??_scan_key 0001  
           change_password@psw_ind 0042             change_password@psw_key 000B  
                      ?_clcd_print 0003                        ?_clcd_putch 000F  
                      ?_clcd_write 0001                         ??_set_time 0011  
                    _login_success 004C                            postdec1 0FE5  
                          postdec2 0FDD                            postinc0 0FEE  
                          postinc1 0FE6                            postinc2 0FDE  
                       ??_view_log 0011                            strcmp@l 0001  
                          strcmp@r 0003                            strcpy@d 0007  
                          strcpy@s 0005                 display_event@event 0011  
                        _PORTBbits 0F81                    read_adc@channel 0007  
                     _display_menu 0A94                       _display_list 222C  
                     _display_time 2BD0                      i2c_write@data 0001  
                    ___xxtofl@sign 0009                    read_adc@reg_val 0005  
                      ___fldiv@grs 0022                        ___fldiv@rem 001B  
            __end_of_display_event 2B8E              __end_of_display_speed 267C  
         read_external_eeprom@data 0003                       ??_i2c_no_ack 0001  
                     ?_i2c_rx_mode 0001                    ??_read_password 0006  
                    __pidataCOMRAM 2CD8                        ?_init_timer 0001  
           display_list@list_index 0013                     __end_of_strcmp 275E  
                   __end_of_strcpy 2AA4                start_initialization 27CA  
                  ??_read_switches 0001                          _i2c_start 2CC0  
                      __end_of_isr 222C                          _i2c_write 2CA0  
               set_time@feild_flag 0045                 __end_of_i2c_no_ack 2CE6  
                   set_time@delay2 00B0              __end_of_i2c_rep_start 2CD0  
                    ??_init_ds1307 0004                        __pdataBANK0 0060  
                    ??_read_ds1307 0002                       _download_log 24F2  
                         ??_strcmp 0005                           ??_strcpy 0005  
      read_switches@detection_type 0001                      ??_init_config 0005  
                        ___fldiv@a 0013                          ___fldiv@b 000F  
                      __pbssCOMRAM 0035                         ?_i2c_start 0001  
                       ?_i2c_write 0001                 display_speed@speed 0011  
                      _flag_30_sec 004F      __end_of_write_external_eeprom 2A64  
                        _clear_log 2466                      ?_store_eeprom 0006  
                        __pintcode 0008                      __pmediumconst 2E2E  
                         ?___fldiv 000F                           ?___awdiv 0007  
                         ?___awmod 0001                           ?___fltol 0028  
                _display_dashboard 1554                 read_ds1307@address 0002  
                        _clock_reg 0039                 ?_display_dashboard 0001  
              __end_of_init_ds1307 2946                ??_display_dashboard 0032  
              __end_of_read_ds1307 2B68                          _event_num 0040  
                        _key_level 004A                          _init_clcd 2ADE  
              __end_of_init_config 2BB0                          _init_uart 2C6A  
                        _min_count 00C2                          _menu_name 0086  
                        _log_count 0047                      ?_write_ds1307 0002  
      read_external_eeprom@address 0002                       ??_clcd_print 0006  
                     ??_clcd_putch 0010         __end_of_init_matrix_keypad 2C8E  
                     ??_clcd_write 0002                     ??_store_eeprom 000A  
                   _direction_flag 0056                           i2u411_40 2160  
                         i2u411_41 215C                           i2u412_40 218A  
                         i2u412_41 2186                           i2u413_40 219C  
                         i2u413_41 2196                           i2u414_40 219E  
                         i2u415_40 21D0                           i2u415_41 21CC  
                         i2u416_40 21F0                           i2u416_41 21EC  
                         i2u417_40 2212                           i2u417_41 220E  
                       ?_clear_log 0001          __end_of_display_dashboard 184C  
                     _list_address 0060         change_password@chng_delay1 00BA  
       change_password@chng_delay2 00B8              clcd_write@control_bit 0001  
                        _psw_index 003E                        ??_i2c_start 0001  
               __end_of_clcd_print 27CA                        ??_i2c_write 0001  
               __end_of_clcd_putch 2C3E                 __end_of_clcd_write 2ADE  
                       ?_init_clcd 0001                         ?_init_uart 0001  
                        copy_data0 27DE                          copy_data1 27FE  
                   ??_write_ds1307 0003                           _i2c_idle 2C8E  
                         _i2c_read 2CAC                           _i2c_stop 2CB8  
                         __Hrparam 0000                      set_time@delay 0035  
                         __Lrparam 0000                      store_eeprom@i 000C  
              store_eeprom@adc_val 0006       __end_of_read_external_eeprom 2B3E  
                      _init_ds1307 28F2                        _event_index 0041  
                     ??_init_timer 0001                        _read_ds1307 2B3E  
                      _init_config 2B8E                           ___xxtofl 1C62  
              write_ds1307@address 0003                           __ptext10 1E16  
                         __ptext11 29DE                           __ptext20 2B14  
                         __ptext12 11F8                           __ptext21 2894  
                         __ptext13 2830                           __ptext30 1F42  
                         __ptext22 2C54                           __ptext14 0A94  
                         __ptext31 2BD0                           __ptext23 222C  
                         __ptext15 184C                           __ptext40 2C8E  
                         __ptext32 2578                           __ptext24 2466  
                         __ptext16 0012                           __ptext41 2CE0  
                         __ptext33 2B3E                           __ptext25 05F0  
                         __ptext17 2BF0                           __ptext50 204A  
                         __ptext42 25FC                           __ptext34 2CA0  
                         __ptext26 2A24                           __ptext18 24F2  
                         __ptext51 0E5E                           __ptext43 23B6  
                         __ptext35 2CB8                           __ptext27 2A64  
                         __ptext19 1A92                           __ptext44 22F2  
                         __ptext36 2CC0                           __ptext28 26F2  
                         __ptext45 2B68                           __ptext37 2CC8  
                         __ptext29 267C                           __ptext46 2C26  
                         __ptext38 2CAC                           __ptext47 275E  
                         __ptext39 2CD0                           __ptext48 2AA4  
                         __ptext49 1C62                           _get_data 1A92  
                         _get_time 2578                         strcpy@dest 0001  
                         _init_i2c 2C3E                  set_time@temp_time 0044  
                         _init_adc 2BB0                           _read_adc 29DE  
                         _log_flag 0046                           _menu_pos 0049  
                         _login_BB 11F8                           _scan_key 1F42  
               __end_of_init_timer 2C26                        ??_clear_log 0006  
                ??_change_password 0009                           _set_time 0012  
                         isa$xinst 0000            change_password@chng_psw 00C9  
                         int$flags 005A                           _view_log 184C  
                         _psw_temp 00CE                           _psw_star 00A6  
            __end_of_read_password 2894                          view_log@i 0013  
                        putch@byte 0001  change_password@chng_psw_temp_star 009A  
             __end_of_store_eeprom 1F42                       set_time@once 0055  
                      ??_init_clcd 0003              __end_of_read_switches 26F2  
                      ??_init_uart 0001                           intlevel2 0000  
                        strcpy@src 0003            display_menu@key_viewlog 002A  
                  display_menu@key 0029               __end_of_write_ds1307 2C0E  
                 write_ds1307@data 0002               _read_external_eeprom 2B14  
                    _display_event 2B68                      _display_speed 25FC  
